---
triple:          'arm64-apple-darwin'
binary-path:     '/Users/fawwaazsheik/codingggg/Breakout_In_C++/player'
relocations:
  - { offset: 0x51, size: 0x8, addend: 0x0, symName: __ZN2sf5Color5BlackE, symObjAddr: 0x15840, symBinAddr: 0x10001EDF8, symSize: 0x0 }
  - { offset: 0x4BC7, size: 0x8, addend: 0x0, symName: __ZNSt3__18in_placeE, symObjAddr: 0x15845, symBinAddr: 0x10001EDFD, symSize: 0x0 }
  - { offset: 0x4BF8, size: 0x8, addend: 0x0, symName: __ZNSt3__17nulloptE, symObjAddr: 0x15844, symBinAddr: 0x10001EDFC, symSize: 0x0 }
  - { offset: 0x4C7E, size: 0x8, addend: 0x0, symName: __ZNSt3__114in_place_indexILm0EEE, symObjAddr: 0x158B9, symBinAddr: 0x10001EE65, symSize: 0x0 }
  - { offset: 0x4CC3, size: 0x8, addend: 0x0, symName: __ZNSt3__114in_place_indexILm1EEE, symObjAddr: 0x158B8, symBinAddr: 0x10001EE64, symSize: 0x0 }
  - { offset: 0x4D08, size: 0x8, addend: 0x0, symName: __ZNSt3__114in_place_indexILm2EEE, symObjAddr: 0x158B7, symBinAddr: 0x10001EE63, symSize: 0x0 }
  - { offset: 0x4D4D, size: 0x8, addend: 0x0, symName: __ZNSt3__114in_place_indexILm3EEE, symObjAddr: 0x158B6, symBinAddr: 0x10001EE62, symSize: 0x0 }
  - { offset: 0x4D92, size: 0x8, addend: 0x0, symName: __ZNSt3__114in_place_indexILm4EEE, symObjAddr: 0x158B5, symBinAddr: 0x10001EE61, symSize: 0x0 }
  - { offset: 0x4DD7, size: 0x8, addend: 0x0, symName: __ZNSt3__114in_place_indexILm5EEE, symObjAddr: 0x158B4, symBinAddr: 0x10001EE60, symSize: 0x0 }
  - { offset: 0x4E1C, size: 0x8, addend: 0x0, symName: __ZNSt3__114in_place_indexILm6EEE, symObjAddr: 0x158B3, symBinAddr: 0x10001EE5F, symSize: 0x0 }
  - { offset: 0x4E61, size: 0x8, addend: 0x0, symName: __ZNSt3__114in_place_indexILm7EEE, symObjAddr: 0x158B2, symBinAddr: 0x10001EE5E, symSize: 0x0 }
  - { offset: 0x4EA6, size: 0x8, addend: 0x0, symName: __ZNSt3__114in_place_indexILm8EEE, symObjAddr: 0x158B1, symBinAddr: 0x10001EE5D, symSize: 0x0 }
  - { offset: 0x4EEB, size: 0x8, addend: 0x0, symName: __ZNSt3__114in_place_indexILm9EEE, symObjAddr: 0x158B0, symBinAddr: 0x10001EE5C, symSize: 0x0 }
  - { offset: 0x4F30, size: 0x8, addend: 0x0, symName: __ZNSt3__114in_place_indexILm10EEE, symObjAddr: 0x158AF, symBinAddr: 0x10001EE5B, symSize: 0x0 }
  - { offset: 0x4F75, size: 0x8, addend: 0x0, symName: __ZNSt3__114in_place_indexILm11EEE, symObjAddr: 0x158AE, symBinAddr: 0x10001EE5A, symSize: 0x0 }
  - { offset: 0x4FBA, size: 0x8, addend: 0x0, symName: __ZNSt3__114in_place_indexILm12EEE, symObjAddr: 0x158AD, symBinAddr: 0x10001EE59, symSize: 0x0 }
  - { offset: 0x4FFF, size: 0x8, addend: 0x0, symName: __ZNSt3__114in_place_indexILm13EEE, symObjAddr: 0x158AC, symBinAddr: 0x10001EE58, symSize: 0x0 }
  - { offset: 0x5044, size: 0x8, addend: 0x0, symName: __ZNSt3__114in_place_indexILm14EEE, symObjAddr: 0x158AB, symBinAddr: 0x10001EE57, symSize: 0x0 }
  - { offset: 0x1CC50, size: 0x8, addend: 0x0, symName: __ZNSt3__124__put_character_sequenceB8ne180100IcNS_11char_traitsIcEEEERNS_13basic_ostreamIT_T0_EES7_PKS4_m, symObjAddr: 0x6394, symBinAddr: 0x100008DFC, symSize: 0x1EC }
  - { offset: 0x28049, size: 0x8, addend: 0x0, symName: __ZNSt3__16__math4sqrtB8ne180100Ef, symObjAddr: 0xA4, symBinAddr: 0x100002B0C, symSize: 0x18 }
  - { offset: 0x280BC, size: 0x8, addend: 0x0, symName: __ZNSt3__1lsB8ne180100INS_11char_traitsIcEEEERNS_13basic_ostreamIcT_EES6_PKc, symObjAddr: 0x294C, symBinAddr: 0x1000053B4, symSize: 0x48 }
  - { offset: 0x28105, size: 0x8, addend: 0x0, symName: __ZNSt3__14endlB8ne180100IcNS_11char_traitsIcEEEERNS_13basic_ostreamIT_T0_EES7_, symObjAddr: 0x29C0, symBinAddr: 0x100005428, symSize: 0x58 }
  - { offset: 0x28147, size: 0x8, addend: 0x0, symName: __ZNSt3__111make_sharedB8ne180100IN2sf7TextureEJEvEENS_10shared_ptrIT_EEDpOT0_, symObjAddr: 0x2ACC, symBinAddr: 0x100005534, symSize: 0x38 }
  - { offset: 0x28176, size: 0x8, addend: 0x0, symName: __ZNSt3__1lsB8ne180100IcNS_11char_traitsIcEENS_9allocatorIcEEEERNS_13basic_ostreamIT_T0_EES9_RKNS_12basic_stringIS6_S7_T1_EE, symObjAddr: 0x2C9C, symBinAddr: 0x100005704, symSize: 0x4C }
  - { offset: 0x281D1, size: 0x8, addend: 0x0, symName: __ZNSt3__1neB8ne180100IPiEEbRKNS_11__wrap_iterIT_EES6_, symObjAddr: 0x31F4, symBinAddr: 0x100005C5C, symSize: 0x34 }
  - { offset: 0x28217, size: 0x8, addend: 0x0, symName: __ZNSt3__14findB8ne180100INS_11__wrap_iterIPiEEjEET_S4_S4_RKT0_, symObjAddr: 0x3228, symBinAddr: 0x100005C90, symSize: 0x78 }
  - { offset: 0x28284, size: 0x8, addend: 0x0, symName: __ZNSt3__1neB8ne180100IP6PlayerEEbRKNS_11__wrap_iterIT_EES7_, symObjAddr: 0x3534, symBinAddr: 0x100005F9C, symSize: 0x34 }
  - { offset: 0x282CA, size: 0x8, addend: 0x0, symName: __ZNSt3__1neB8ne180100IP9BoomerangEEbRKNS_11__wrap_iterIT_EES7_, symObjAddr: 0x3730, symBinAddr: 0x100006198, symSize: 0x34 }
  - { offset: 0x28310, size: 0x8, addend: 0x0, symName: '__ZNSt3__19remove_ifB8ne180100INS_11__wrap_iterIP9BoomerangEEZ4mainE3$_0EET_S6_S6_T0_', symObjAddr: 0x3B08, symBinAddr: 0x100006570, symSize: 0xF4 }
  - { offset: 0x2838C, size: 0x8, addend: 0x0, symName: __ZNSt3__1neB8ne180100IPN2sf14RectangleShapeEEEbRKNS_11__wrap_iterIT_EES8_, symObjAddr: 0x3C90, symBinAddr: 0x1000066F8, symSize: 0x34 }
  - { offset: 0x283D2, size: 0x8, addend: 0x0, symName: __ZNSt3__119__libcpp_deallocateB8ne180100EPvmm, symObjAddr: 0x40F8, symBinAddr: 0x100006B60, symSize: 0x60 }
  - { offset: 0x2843D, size: 0x8, addend: 0x0, symName: __ZNSt3__124__is_overaligned_for_newB8ne180100Em, symObjAddr: 0x4168, symBinAddr: 0x100006BD0, symSize: 0x20 }
  - { offset: 0x2846D, size: 0x8, addend: 0x0, symName: __ZNSt3__127__do_deallocate_handle_sizeB8ne180100IJSt11align_val_tEEEvPvmDpT_, symObjAddr: 0x4188, symBinAddr: 0x100006BF0, symSize: 0x30 }
  - { offset: 0x284C4, size: 0x8, addend: 0x0, symName: __ZNSt3__127__do_deallocate_handle_sizeB8ne180100IJEEEvPvmDpT_, symObjAddr: 0x41B8, symBinAddr: 0x100006C20, symSize: 0x28 }
  - { offset: 0x28505, size: 0x8, addend: 0x0, symName: __ZNSt3__124__libcpp_operator_deleteB8ne180100IJPvSt11align_val_tEEEvDpT_, symObjAddr: 0x41E0, symBinAddr: 0x100006C48, symSize: 0x2C }
  - { offset: 0x28551, size: 0x8, addend: 0x0, symName: __ZNSt3__124__libcpp_operator_deleteB8ne180100IJPvEEEvDpT_, symObjAddr: 0x420C, symBinAddr: 0x100006C74, symSize: 0x24 }
  - { offset: 0x28588, size: 0x8, addend: 0x0, symName: __ZNSt3__112__to_addressB8ne180100IN2sf6VertexEEEPT_S4_, symObjAddr: 0x4890, symBinAddr: 0x1000072F8, symSize: 0x14 }
  - { offset: 0x285BF, size: 0x8, addend: 0x0, symName: __ZNSt3__1eqB8ne180100IPiEEbRKNS_11__wrap_iterIT_EES6_, symObjAddr: 0x49C4, symBinAddr: 0x10000742C, symSize: 0x48 }
  - { offset: 0x28605, size: 0x8, addend: 0x0, symName: __ZNSt3__1eqB8ne180100IP6PlayerEEbRKNS_11__wrap_iterIT_EES7_, symObjAddr: 0x4A24, symBinAddr: 0x10000748C, symSize: 0x48 }
  - { offset: 0x2864B, size: 0x8, addend: 0x0, symName: __ZNSt3__1eqB8ne180100IP9BoomerangEEbRKNS_11__wrap_iterIT_EES7_, symObjAddr: 0x4ACC, symBinAddr: 0x100007534, symSize: 0x48 }
  - { offset: 0x28691, size: 0x8, addend: 0x0, symName: __ZNSt3__1eqB8ne180100IPN2sf14RectangleShapeEEEbRKNS_11__wrap_iterIT_EES8_, symObjAddr: 0x4F84, symBinAddr: 0x1000079EC, symSize: 0x48 }
  - { offset: 0x286D7, size: 0x8, addend: 0x0, symName: __ZNSt3__18distanceB8ne180100IPKcEENS_15iterator_traitsIT_E15difference_typeES4_S4_, symObjAddr: 0x5568, symBinAddr: 0x100007FD0, symSize: 0x2C }
  - { offset: 0x2871D, size: 0x8, addend: 0x0, symName: __ZNSt3__110__distanceB8ne180100IPKcEENS_15iterator_traitsIT_E15difference_typeES4_S4_NS_26random_access_iterator_tagE, symObjAddr: 0x58A0, symBinAddr: 0x100008308, symSize: 0x20 }
  - { offset: 0x2876E, size: 0x8, addend: 0x0, symName: __ZNSt3__121__is_pointer_in_rangeB8ne180100IccLi0EEEbPKT_S3_PKT0_, symObjAddr: 0x58C0, symBinAddr: 0x100008328, symSize: 0x68 }
  - { offset: 0x2887D, size: 0x8, addend: 0x0, symName: __ZNSt3__119__allocate_at_leastB8ne180100INS_9allocatorIcEEEENS_19__allocation_resultINS_16allocator_traitsIT_E7pointerEEERS5_m, symObjAddr: 0x5E64, symBinAddr: 0x1000088CC, symSize: 0x40 }
  - { offset: 0x28AAF, size: 0x8, addend: 0x0, symName: __ZNSt3__120__throw_length_errorB8ne180100EPKc, symObjAddr: 0x6094, symBinAddr: 0x100008AFC, symSize: 0x64 }
  - { offset: 0x28AD9, size: 0x8, addend: 0x0, symName: __ZNSt3__117__libcpp_allocateB8ne180100Emm, symObjAddr: 0x61FC, symBinAddr: 0x100008C64, symSize: 0x60 }
  - { offset: 0x28B38, size: 0x8, addend: 0x0, symName: __ZNSt3__121__libcpp_operator_newB8ne180100IJmSt11align_val_tEEEPvDpT_, symObjAddr: 0x625C, symBinAddr: 0x100008CC4, symSize: 0x2C }
  - { offset: 0x28B88, size: 0x8, addend: 0x0, symName: __ZNSt3__121__libcpp_operator_newB8ne180100IJmEEEPvDpT_, symObjAddr: 0x6288, symBinAddr: 0x100008CF0, symSize: 0x24 }
  - { offset: 0x28BC3, size: 0x8, addend: 0x0, symName: __ZNSt3__112__to_addressB8ne180100IKcEEPT_S3_, symObjAddr: 0x62C8, symBinAddr: 0x100008D30, symSize: 0x14 }
  - { offset: 0x28C2D, size: 0x8, addend: 0x0, symName: __ZNSt3__116__pad_and_outputB8ne180100IcNS_11char_traitsIcEEEENS_19ostreambuf_iteratorIT_T0_EES6_PKS4_S8_S8_RNS_8ios_baseES4_, symObjAddr: 0x65D0, symBinAddr: 0x100009038, symSize: 0x240 }
  - { offset: 0x28D08, size: 0x8, addend: 0x0, symName: __ZNSt3__112__to_addressB8ne180100IcEEPT_S2_, symObjAddr: 0x6AB8, symBinAddr: 0x100009520, symSize: 0x14 }
  - { offset: 0x28D3F, size: 0x8, addend: 0x0, symName: __ZNSt3__19use_facetB8ne180100INS_5ctypeIcEEEERKT_RKNS_6localeE, symObjAddr: 0x6C10, symBinAddr: 0x100009678, symSize: 0x2C }
  - { offset: 0x2920F, size: 0x8, addend: 0x0, symName: __ZNSt3__118__constexpr_strlenB8ne180100EPKc, symObjAddr: 0x6CA8, symBinAddr: 0x100009710, symSize: 0x24 }
  - { offset: 0x2923D, size: 0x8, addend: 0x0, symName: __ZNSt3__115allocate_sharedB8ne180100IN2sf7TextureENS_9allocatorIS2_EEJEvEENS_10shared_ptrIT_EERKT0_DpOT1_, symObjAddr: 0x6DE4, symBinAddr: 0x10000984C, symSize: 0x90 }
  - { offset: 0x29689, size: 0x8, addend: 0x0, symName: __ZNSt3__134__libcpp_atomic_refcount_decrementB8ne180100IlEET_RS1_, symObjAddr: 0x792C, symBinAddr: 0x10000A394, symSize: 0x30 }
  - { offset: 0x296C0, size: 0x8, addend: 0x0, symName: __ZNSt3__122__make_exception_guardB8ne180100INS_6vectorINS_10shared_ptrIN2sf7TextureEEENS_9allocatorIS5_EEE16__destroy_vectorEEENS_28__exception_guard_exceptionsIT_EESB_, symObjAddr: 0x7B84, symBinAddr: 0x10000A5EC, symSize: 0x40 }
  - { offset: 0x296F7, size: 0x8, addend: 0x0, symName: __ZNSt3__119__allocate_at_leastB8ne180100INS_9allocatorINS_10shared_ptrIN2sf7TextureEEEEEEENS_19__allocation_resultINS_16allocator_traitsIT_E7pointerEEERS9_m, symObjAddr: 0x7F70, symBinAddr: 0x10000A9D8, symSize: 0x40 }
  - { offset: 0x2973D, size: 0x8, addend: 0x0, symName: __ZNSt3__13minB8ne180100ImEERKT_S3_S3_, symObjAddr: 0x8014, symBinAddr: 0x10000AA7C, symSize: 0x2C }
  - { offset: 0x2996D, size: 0x8, addend: 0x0, symName: __ZNSt3__13minB8ne180100ImNS_6__lessIvvEEEERKT_S5_S5_T0_, symObjAddr: 0x80A0, symBinAddr: 0x10000AB08, symSize: 0x54 }
  - { offset: 0x299CB, size: 0x8, addend: 0x0, symName: __ZNSt3__112__to_addressB8ne180100INS_10shared_ptrIN2sf7TextureEEEEEPT_S6_, symObjAddr: 0x82AC, symBinAddr: 0x10000AD14, symSize: 0x14 }
  - { offset: 0x29A02, size: 0x8, addend: 0x0, symName: __ZNSt3__14swapB8ne180100IPN2sf7TextureEEENS_9enable_ifIXaasr21is_move_constructibleIT_EE5valuesr18is_move_assignableIS5_EE5valueEvE4typeERS5_S8_, symObjAddr: 0x87D4, symBinAddr: 0x10000B23C, symSize: 0x3C }
  - { offset: 0x29A57, size: 0x8, addend: 0x0, symName: __ZNSt3__14swapB8ne180100IPNS_19__shared_weak_countEEENS_9enable_ifIXaasr21is_move_constructibleIT_EE5valuesr18is_move_assignableIS4_EE5valueEvE4typeERS4_S7_, symObjAddr: 0x8810, symBinAddr: 0x10000B278, symSize: 0x3C }
  - { offset: 0x29AAC, size: 0x8, addend: 0x0, symName: __ZNSt3__112__to_addressB8ne180100IN2sf6SpriteEEEPT_S4_, symObjAddr: 0x8D88, symBinAddr: 0x10000B7F0, symSize: 0x14 }
  - { offset: 0x29AE3, size: 0x8, addend: 0x0, symName: __ZNSt3__13maxB8ne180100ImEERKT_S3_S3_, symObjAddr: 0x9630, symBinAddr: 0x10000C098, symSize: 0x2C }
  - { offset: 0x29B29, size: 0x8, addend: 0x0, symName: __ZNSt3__13maxB8ne180100ImNS_6__lessIvvEEEERKT_S5_S5_T0_, symObjAddr: 0x9700, symBinAddr: 0x10000C168, symSize: 0x54 }
  - { offset: 0x29B87, size: 0x8, addend: 0x0, symName: __ZNSt3__119__allocate_at_leastB8ne180100INS_9allocatorIN2sf6SpriteEEEEENS_19__allocation_resultINS_16allocator_traitsIT_E7pointerEEERS7_m, symObjAddr: 0x9870, symBinAddr: 0x10000C2D8, symSize: 0x40 }
  - { offset: 0x29BCD, size: 0x8, addend: 0x0, symName: __ZNSt3__142__uninitialized_allocator_move_if_noexceptB8ne180100INS_9allocatorIN2sf6SpriteEEENS_16reverse_iteratorIPS3_EES7_S7_EET2_RT_T0_T1_S8_, symObjAddr: 0x9A28, symBinAddr: 0x10000C490, symSize: 0x12C }
  - { offset: 0x29C74, size: 0x8, addend: 0x0, symName: __ZNSt3__14swapB8ne180100IPN2sf6SpriteEEENS_9enable_ifIXaasr21is_move_constructibleIT_EE5valuesr18is_move_assignableIS5_EE5valueEvE4typeERS5_S8_, symObjAddr: 0x9BA0, symBinAddr: 0x10000C608, symSize: 0x3C }
  - { offset: 0x29CC9, size: 0x8, addend: 0x0, symName: __ZNSt3__122__make_exception_guardB8ne180100INS_29_AllocatorDestroyRangeReverseINS_9allocatorIN2sf6SpriteEEENS_16reverse_iteratorIPS4_EEEEEENS_28__exception_guard_exceptionsIT_EESB_, symObjAddr: 0x9BF0, symBinAddr: 0x10000C658, symSize: 0x4C }
  - { offset: 0x29D01, size: 0x8, addend: 0x0, symName: __ZNSt3__1neB8ne180100IPN2sf6SpriteES3_EEbRKNS_16reverse_iteratorIT_EERKNS4_IT0_EE, symObjAddr: 0x9C80, symBinAddr: 0x10000C6E8, symSize: 0x48 }
  - { offset: 0x29D50, size: 0x8, addend: 0x0, symName: __ZNSt3__112__to_addressB8ne180100INS_16reverse_iteratorIPN2sf6SpriteEEEvEEu7__decayIDTclsr19__to_address_helperIT_EE6__callclsr3stdE7declvalIRKS6_EEEEES8_, symObjAddr: 0x9CFC, symBinAddr: 0x10000C764, symSize: 0x24 }
  - { offset: 0x29DB1, size: 0x8, addend: 0x0, symName: __ZNSt3__119__allocator_destroyB8ne180100INS_9allocatorIN2sf6SpriteEEENS_16reverse_iteratorINS5_IPS3_EEEES8_EEvRT_T0_T1_, symObjAddr: 0xA088, symBinAddr: 0x10000CAF0, symSize: 0x70 }
  - { offset: 0x29E1A, size: 0x8, addend: 0x0, symName: __ZNSt3__1neB8ne180100INS_16reverse_iteratorIPN2sf6SpriteEEES5_EEbRKNS1_IT_EERKNS1_IT0_EE, symObjAddr: 0xA134, symBinAddr: 0x10000CB9C, symSize: 0x60 }
  - { offset: 0x29E69, size: 0x8, addend: 0x0, symName: __ZNSt3__112__to_addressB8ne180100INS_16reverse_iteratorINS1_IPN2sf6SpriteEEEEEvEEu7__decayIDTclsr19__to_address_helperIT_EE6__callclsr3stdE7declvalIRKS7_EEEEES9_, symObjAddr: 0xA194, symBinAddr: 0x10000CBFC, symSize: 0x24 }
  - { offset: 0x29ECA, size: 0x8, addend: 0x0, symName: __ZNSt3__122__make_exception_guardB8ne180100INS_6vectorINS_12basic_stringIcNS_11char_traitsIcEENS_9allocatorIcEEEENS5_IS7_EEE16__destroy_vectorEEENS_28__exception_guard_exceptionsIT_EESC_, symObjAddr: 0xA770, symBinAddr: 0x10000D1D8, symSize: 0x40 }
  - { offset: 0x29F01, size: 0x8, addend: 0x0, symName: __ZNSt3__119__allocate_at_leastB8ne180100INS_9allocatorINS_12basic_stringIcNS_11char_traitsIcEENS1_IcEEEEEEEENS_19__allocation_resultINS_16allocator_traitsIT_E7pointerEEERSA_m, symObjAddr: 0xAB80, symBinAddr: 0x10000D5E8, symSize: 0x40 }
  - { offset: 0x29F47, size: 0x8, addend: 0x0, symName: __ZNSt3__130__uninitialized_allocator_copyB8ne180100INS_9allocatorINS_12basic_stringIcNS_11char_traitsIcEENS1_IcEEEEEEPKS6_S9_PS6_EET2_RT_T0_T1_SB_, symObjAddr: 0xADC8, symBinAddr: 0x10000D830, symSize: 0x80 }
  - { offset: 0x29FEB, size: 0x8, addend: 0x0, symName: __ZNSt3__114__unwrap_rangeB8ne180100IPKNS_12basic_stringIcNS_11char_traitsIcEENS_9allocatorIcEEEES8_EENS_4pairIT0_SA_EET_SC_, symObjAddr: 0xAEC0, symBinAddr: 0x10000D928, symSize: 0x60 }
  - { offset: 0x2A03A, size: 0x8, addend: 0x0, symName: __ZNSt3__135__uninitialized_allocator_copy_implB8ne180100INS_9allocatorINS_12basic_stringIcNS_11char_traitsIcEENS1_IcEEEEEEPKS6_S9_PS6_EET2_RT_T0_T1_SB_, symObjAddr: 0xAF20, symBinAddr: 0x10000D988, symSize: 0xF4 }
  - { offset: 0x2A0DF, size: 0x8, addend: 0x0, symName: __ZNSt3__113__unwrap_iterB8ne180100IPNS_12basic_stringIcNS_11char_traitsIcEENS_9allocatorIcEEEENS_18__unwrap_iter_implIS7_Lb1EEELi0EEEDTclsrT0_8__unwrapclsr3stdE7declvalIT_EEEESB_, symObjAddr: 0xB014, symBinAddr: 0x10000DA7C, symSize: 0x24 }
  - { offset: 0x2A125, size: 0x8, addend: 0x0, symName: __ZNSt3__113__rewrap_iterB8ne180100IPNS_12basic_stringIcNS_11char_traitsIcEENS_9allocatorIcEEEES7_NS_18__unwrap_iter_implIS7_Lb1EEEEET_SA_T0_, symObjAddr: 0xB038, symBinAddr: 0x10000DAA0, symSize: 0x3C }
  - { offset: 0x2A17D, size: 0x8, addend: 0x0, symName: __ZNSt3__19make_pairB8ne180100IPKNS_12basic_stringIcNS_11char_traitsIcEENS_9allocatorIcEEEES8_EENS_4pairINS_18__unwrap_ref_decayIT_E4typeENSA_IT0_E4typeEEEOSB_OSE_, symObjAddr: 0xB074, symBinAddr: 0x10000DADC, symSize: 0x38 }
  - { offset: 0x2A1CF, size: 0x8, addend: 0x0, symName: __ZNSt3__113__unwrap_iterB8ne180100IPKNS_12basic_stringIcNS_11char_traitsIcEENS_9allocatorIcEEEENS_18__unwrap_iter_implIS8_Lb1EEELi0EEEDTclsrT0_8__unwrapclsr3stdE7declvalIT_EEEESC_, symObjAddr: 0xB0AC, symBinAddr: 0x10000DB14, symSize: 0x24 }
  - { offset: 0x2A33C, size: 0x8, addend: 0x0, symName: __ZNSt3__112__to_addressB8ne180100IKNS_12basic_stringIcNS_11char_traitsIcEENS_9allocatorIcEEEEEEPT_S9_, symObjAddr: 0xB164, symBinAddr: 0x10000DBCC, symSize: 0x14 }
  - { offset: 0x2A373, size: 0x8, addend: 0x0, symName: __ZNSt3__122__make_exception_guardB8ne180100INS_29_AllocatorDestroyRangeReverseINS_9allocatorINS_12basic_stringIcNS_11char_traitsIcEENS2_IcEEEEEEPS7_EEEENS_28__exception_guard_exceptionsIT_EESC_, symObjAddr: 0xB178, symBinAddr: 0x10000DBE0, symSize: 0x4C }
  - { offset: 0x2A3AB, size: 0x8, addend: 0x0, symName: __ZNSt3__112__to_addressB8ne180100INS_12basic_stringIcNS_11char_traitsIcEENS_9allocatorIcEEEEEEPT_S8_, symObjAddr: 0xB23C, symBinAddr: 0x10000DCA4, symSize: 0x14 }
  - { offset: 0x2A3E2, size: 0x8, addend: 0x0, symName: __ZNSt3__119__allocator_destroyB8ne180100INS_9allocatorINS_12basic_stringIcNS_11char_traitsIcEENS1_IcEEEEEENS_16reverse_iteratorIPS6_EESA_EEvRT_T0_T1_, symObjAddr: 0xB41C, symBinAddr: 0x10000DE84, symSize: 0x70 }
  - { offset: 0x2A449, size: 0x8, addend: 0x0, symName: __ZNSt3__1neB8ne180100IPNS_12basic_stringIcNS_11char_traitsIcEENS_9allocatorIcEEEES7_EEbRKNS_16reverse_iteratorIT_EERKNS8_IT0_EE, symObjAddr: 0xB4C0, symBinAddr: 0x10000DF28, symSize: 0x48 }
  - { offset: 0x2A498, size: 0x8, addend: 0x0, symName: __ZNSt3__112__to_addressB8ne180100INS_16reverse_iteratorIPNS_12basic_stringIcNS_11char_traitsIcEENS_9allocatorIcEEEEEEvEEu7__decayIDTclsr19__to_address_helperIT_EE6__callclsr3stdE7declvalIRKSA_EEEEESC_, symObjAddr: 0xB534, symBinAddr: 0x10000DF9C, symSize: 0x24 }
  - { offset: 0x2A54C, size: 0x8, addend: 0x0, symName: __ZNSt3__112__to_addressB8ne180100IN2sf14RectangleShapeEEEPT_S4_, symObjAddr: 0xBE00, symBinAddr: 0x10000E868, symSize: 0x14 }
  - { offset: 0x2A583, size: 0x8, addend: 0x0, symName: __ZNSt3__122__make_exception_guardB8ne180100INS_6vectorIN2sf6VertexENS_9allocatorIS3_EEE16__destroy_vectorEEENS_28__exception_guard_exceptionsIT_EES9_, symObjAddr: 0xC7A0, symBinAddr: 0x10000F208, symSize: 0x40 }
  - { offset: 0x2A5BA, size: 0x8, addend: 0x0, symName: __ZNSt3__119__allocate_at_leastB8ne180100INS_9allocatorIN2sf6VertexEEEEENS_19__allocation_resultINS_16allocator_traitsIT_E7pointerEEERS7_m, symObjAddr: 0xCA3C, symBinAddr: 0x10000F4A4, symSize: 0x40 }
  - { offset: 0x2A600, size: 0x8, addend: 0x0, symName: __ZNSt3__130__uninitialized_allocator_copyB8ne180100INS_9allocatorIN2sf6VertexEEEPS3_S5_S5_EET2_RT_T0_T1_S6_, symObjAddr: 0xCBC4, symBinAddr: 0x10000F62C, symSize: 0x80 }
  - { offset: 0x2A6A4, size: 0x8, addend: 0x0, symName: __ZNSt3__114__unwrap_rangeB8ne180100IPN2sf6VertexES3_EENS_4pairIT0_S5_EET_S7_, symObjAddr: 0xCCBC, symBinAddr: 0x10000F724, symSize: 0x60 }
  - { offset: 0x2A6F3, size: 0x8, addend: 0x0, symName: __ZNSt3__135__uninitialized_allocator_copy_implB8ne180100INS_9allocatorIN2sf6VertexEEES3_S3_S3_LPv0EEEPT2_RT_PT0_SB_S7_, symObjAddr: 0xCD1C, symBinAddr: 0x10000F784, symSize: 0x38 }
  - { offset: 0x2A77A, size: 0x8, addend: 0x0, symName: __ZNSt3__113__unwrap_iterB8ne180100IPN2sf6VertexENS_18__unwrap_iter_implIS3_Lb1EEELi0EEEDTclsrT0_8__unwrapclsr3stdE7declvalIT_EEEES7_, symObjAddr: 0xCD54, symBinAddr: 0x10000F7BC, symSize: 0x24 }
  - { offset: 0x2A7C0, size: 0x8, addend: 0x0, symName: __ZNSt3__113__rewrap_iterB8ne180100IPN2sf6VertexES3_NS_18__unwrap_iter_implIS3_Lb1EEEEET_S6_T0_, symObjAddr: 0xCD78, symBinAddr: 0x10000F7E0, symSize: 0x3C }
  - { offset: 0x2A818, size: 0x8, addend: 0x0, symName: __ZNSt3__19make_pairB8ne180100IPN2sf6VertexES3_EENS_4pairINS_18__unwrap_ref_decayIT_E4typeENS5_IT0_E4typeEEEOS6_OS9_, symObjAddr: 0xCDB4, symBinAddr: 0x10000F81C, symSize: 0x38 }
  - { offset: 0x2A96D, size: 0x8, addend: 0x0, symName: __ZNSt3__14copyB8ne180100IPN2sf6VertexES3_EET0_T_S5_S4_, symObjAddr: 0xCE5C, symBinAddr: 0x10000F8C4, symSize: 0x40 }
  - { offset: 0x2A9CB, size: 0x8, addend: 0x0, symName: __ZNSt3__16__copyB8ne180100INS_17_ClassicAlgPolicyEPN2sf6VertexES4_S4_EENS_4pairIT0_T2_EES6_T1_S7_, symObjAddr: 0xCE9C, symBinAddr: 0x10000F904, symSize: 0x44 }
  - { offset: 0x2AA3B, size: 0x8, addend: 0x0, symName: __ZNSt3__123__dispatch_copy_or_moveB8ne180100INS_17_ClassicAlgPolicyENS_11__copy_loopIS1_EENS_14__copy_trivialEPN2sf6VertexES7_S7_EENS_4pairIT2_T4_EES9_T3_SA_, symObjAddr: 0xCEE0, symBinAddr: 0x10000F948, symSize: 0x44 }
  - { offset: 0x2AABD, size: 0x8, addend: 0x0, symName: __ZNSt3__121__unwrap_and_dispatchB8ne180100INS_10__overloadINS_11__copy_loopINS_17_ClassicAlgPolicyEEENS_14__copy_trivialEEEPN2sf6VertexES9_S9_Li0EEENS_4pairIT0_T2_EESB_T1_SC_, symObjAddr: 0xCF24, symBinAddr: 0x10000F98C, symSize: 0xB4 }
  - { offset: 0x2AB97, size: 0x8, addend: 0x0, symName: __ZNSt3__114__rewrap_rangeB8ne180100IPN2sf6VertexES3_EET_S4_T0_, symObjAddr: 0xD020, symBinAddr: 0x10000FA88, symSize: 0x2C }
  - { offset: 0x2ABE6, size: 0x8, addend: 0x0, symName: __ZNSt3__119__copy_trivial_implB8ne180100IN2sf6VertexES2_EENS_4pairIPT_PT0_EES5_S5_S7_, symObjAddr: 0xD04C, symBinAddr: 0x10000FAB4, symSize: 0x88 }
  - { offset: 0x2AC53, size: 0x8, addend: 0x0, symName: __ZNSt3__119__constexpr_memmoveB8ne180100IN2sf6VertexES2_Li0EEEPT_S4_PT0_NS_15__element_countE, symObjAddr: 0xD0D4, symBinAddr: 0x10000FB3C, symSize: 0x68 }
  - { offset: 0x2ACC6, size: 0x8, addend: 0x0, symName: __ZNSt3__19make_pairB8ne180100IRPN2sf6VertexES3_EENS_4pairINS_18__unwrap_ref_decayIT_E4typeENS6_IT0_E4typeEEEOS7_OSA_, symObjAddr: 0xD13C, symBinAddr: 0x10000FBA4, symSize: 0x38 }
  - { offset: 0x2AD6B, size: 0x8, addend: 0x0, symName: __ZNSt3__119__allocate_at_leastB8ne180100INS_9allocatorIN2sf14RectangleShapeEEEEENS_19__allocation_resultINS_16allocator_traitsIT_E7pointerEEERS7_m, symObjAddr: 0xD780, symBinAddr: 0x1000101E8, symSize: 0x40 }
  - { offset: 0x2ADB1, size: 0x8, addend: 0x0, symName: __ZNSt3__142__uninitialized_allocator_move_if_noexceptB8ne180100INS_9allocatorIN2sf14RectangleShapeEEENS_16reverse_iteratorIPS3_EES7_S7_EET2_RT_T0_T1_S8_, symObjAddr: 0xD938, symBinAddr: 0x1000103A0, symSize: 0x12C }
  - { offset: 0x2AE58, size: 0x8, addend: 0x0, symName: __ZNSt3__14swapB8ne180100IPN2sf14RectangleShapeEEENS_9enable_ifIXaasr21is_move_constructibleIT_EE5valuesr18is_move_assignableIS5_EE5valueEvE4typeERS5_S8_, symObjAddr: 0xDAB0, symBinAddr: 0x100010518, symSize: 0x3C }
  - { offset: 0x2AEAD, size: 0x8, addend: 0x0, symName: __ZNSt3__122__make_exception_guardB8ne180100INS_29_AllocatorDestroyRangeReverseINS_9allocatorIN2sf14RectangleShapeEEENS_16reverse_iteratorIPS4_EEEEEENS_28__exception_guard_exceptionsIT_EESB_, symObjAddr: 0xDB00, symBinAddr: 0x100010568, symSize: 0x4C }
  - { offset: 0x2AEE5, size: 0x8, addend: 0x0, symName: __ZNSt3__1neB8ne180100IPN2sf14RectangleShapeES3_EEbRKNS_16reverse_iteratorIT_EERKNS4_IT0_EE, symObjAddr: 0xDB90, symBinAddr: 0x1000105F8, symSize: 0x48 }
  - { offset: 0x2AF34, size: 0x8, addend: 0x0, symName: __ZNSt3__112__to_addressB8ne180100INS_16reverse_iteratorIPN2sf14RectangleShapeEEEvEEu7__decayIDTclsr19__to_address_helperIT_EE6__callclsr3stdE7declvalIRKS6_EEEEES8_, symObjAddr: 0xDC0C, symBinAddr: 0x100010674, symSize: 0x24 }
  - { offset: 0x2AF95, size: 0x8, addend: 0x0, symName: __ZNSt3__119__allocator_destroyB8ne180100INS_9allocatorIN2sf14RectangleShapeEEENS_16reverse_iteratorINS5_IPS3_EEEES8_EEvRT_T0_T1_, symObjAddr: 0xE1D0, symBinAddr: 0x100010C38, symSize: 0x70 }
  - { offset: 0x2AFFE, size: 0x8, addend: 0x0, symName: __ZNSt3__1neB8ne180100INS_16reverse_iteratorIPN2sf14RectangleShapeEEES5_EEbRKNS1_IT_EERKNS1_IT0_EE, symObjAddr: 0xE27C, symBinAddr: 0x100010CE4, symSize: 0x60 }
  - { offset: 0x2B04D, size: 0x8, addend: 0x0, symName: __ZNSt3__112__to_addressB8ne180100INS_16reverse_iteratorINS1_IPN2sf14RectangleShapeEEEEEvEEu7__decayIDTclsr19__to_address_helperIT_EE6__callclsr3stdE7declvalIRKS7_EEEEES9_, symObjAddr: 0xE2DC, symBinAddr: 0x100010D44, symSize: 0x24 }
  - { offset: 0x2B0AE, size: 0x8, addend: 0x0, symName: __ZNSt3__112__to_addressB8ne180100I6PlayerEEPT_S3_, symObjAddr: 0xEA48, symBinAddr: 0x1000114B0, symSize: 0x14 }
  - { offset: 0x2B0E5, size: 0x8, addend: 0x0, symName: __ZNSt3__112__to_addressB8ne180100I9BoomerangEEPT_S3_, symObjAddr: 0xF168, symBinAddr: 0x100011BD0, symSize: 0x14 }
  - { offset: 0x2B11C, size: 0x8, addend: 0x0, symName: __ZNSt3__112__to_addressB8ne180100IiEEPT_S2_, symObjAddr: 0xF684, symBinAddr: 0x1000120EC, symSize: 0x14 }
  - { offset: 0x2B153, size: 0x8, addend: 0x0, symName: __ZNSt3__117holds_alternativeB8ne180100IN2sf5Event6ClosedEJS3_NS2_7ResizedENS2_9FocusLostENS2_11FocusGainedENS2_11TextEnteredENS2_10KeyPressedENS2_11KeyReleasedENS2_18MouseWheelScrolledENS2_18MouseButtonPressedENS2_19MouseButtonReleasedENS2_10MouseMovedENS2_13MouseMovedRawENS2_12MouseEnteredENS2_9MouseLeftENS2_21JoystickButtonPressedENS2_22JoystickButtonReleasedENS2_13JoystickMovedENS2_17JoystickConnectedENS2_20JoystickDisconnectedENS2_10TouchBeganENS2_10TouchMovedENS2_10TouchEndedENS2_13SensorChangedEEEEbRKNS_7variantIJDpT0_EEE, symObjAddr: 0xF784, symBinAddr: 0x1000121EC, symSize: 0x28 }
  - { offset: 0x2B205, size: 0x8, addend: 0x0, symName: __ZNSt3__119__holds_alternativeB8ne180100ILm0EJN2sf5Event6ClosedENS2_7ResizedENS2_9FocusLostENS2_11FocusGainedENS2_11TextEnteredENS2_10KeyPressedENS2_11KeyReleasedENS2_18MouseWheelScrolledENS2_18MouseButtonPressedENS2_19MouseButtonReleasedENS2_10MouseMovedENS2_13MouseMovedRawENS2_12MouseEnteredENS2_9MouseLeftENS2_21JoystickButtonPressedENS2_22JoystickButtonReleasedENS2_13JoystickMovedENS2_17JoystickConnectedENS2_20JoystickDisconnectedENS2_10TouchBeganENS2_10TouchMovedENS2_10TouchEndedENS2_13SensorChangedEEEEbRKNS_7variantIJDpT0_EEE, symObjAddr: 0xF7AC, symBinAddr: 0x100012214, symSize: 0x30 }
  - { offset: 0x2B2B8, size: 0x8, addend: 0x0, symName: __ZNSt3__117holds_alternativeB8ne180100IN2sf5Event21JoystickButtonPressedEJNS2_6ClosedENS2_7ResizedENS2_9FocusLostENS2_11FocusGainedENS2_11TextEnteredENS2_10KeyPressedENS2_11KeyReleasedENS2_18MouseWheelScrolledENS2_18MouseButtonPressedENS2_19MouseButtonReleasedENS2_10MouseMovedENS2_13MouseMovedRawENS2_12MouseEnteredENS2_9MouseLeftES3_NS2_22JoystickButtonReleasedENS2_13JoystickMovedENS2_17JoystickConnectedENS2_20JoystickDisconnectedENS2_10TouchBeganENS2_10TouchMovedENS2_10TouchEndedENS2_13SensorChangedEEEEbRKNS_7variantIJDpT0_EEE, symObjAddr: 0xF84C, symBinAddr: 0x1000122B4, symSize: 0x28 }
  - { offset: 0x2B36A, size: 0x8, addend: 0x0, symName: __ZNSt3__119__holds_alternativeB8ne180100ILm14EJN2sf5Event6ClosedENS2_7ResizedENS2_9FocusLostENS2_11FocusGainedENS2_11TextEnteredENS2_10KeyPressedENS2_11KeyReleasedENS2_18MouseWheelScrolledENS2_18MouseButtonPressedENS2_19MouseButtonReleasedENS2_10MouseMovedENS2_13MouseMovedRawENS2_12MouseEnteredENS2_9MouseLeftENS2_21JoystickButtonPressedENS2_22JoystickButtonReleasedENS2_13JoystickMovedENS2_17JoystickConnectedENS2_20JoystickDisconnectedENS2_10TouchBeganENS2_10TouchMovedENS2_10TouchEndedENS2_13SensorChangedEEEEbRKNS_7variantIJDpT0_EEE, symObjAddr: 0xF874, symBinAddr: 0x1000122DC, symSize: 0x30 }
  - { offset: 0x2B41D, size: 0x8, addend: 0x0, symName: __ZNSt3__16get_ifB8ne180100IN2sf5Event21JoystickButtonPressedEJNS2_6ClosedENS2_7ResizedENS2_9FocusLostENS2_11FocusGainedENS2_11TextEnteredENS2_10KeyPressedENS2_11KeyReleasedENS2_18MouseWheelScrolledENS2_18MouseButtonPressedENS2_19MouseButtonReleasedENS2_10MouseMovedENS2_13MouseMovedRawENS2_12MouseEnteredENS2_9MouseLeftES3_NS2_22JoystickButtonReleasedENS2_13JoystickMovedENS2_17JoystickConnectedENS2_20JoystickDisconnectedENS2_10TouchBeganENS2_10TouchMovedENS2_10TouchEndedENS2_13SensorChangedEEEEu13__add_pointerIKT_EPKNS_7variantIJDpT0_EEE, symObjAddr: 0xF8A4, symBinAddr: 0x10001230C, symSize: 0x24 }
  - { offset: 0x2B4CF, size: 0x8, addend: 0x0, symName: __ZNSt3__16get_ifB8ne180100ILm14EJN2sf5Event6ClosedENS2_7ResizedENS2_9FocusLostENS2_11FocusGainedENS2_11TextEnteredENS2_10KeyPressedENS2_11KeyReleasedENS2_18MouseWheelScrolledENS2_18MouseButtonPressedENS2_19MouseButtonReleasedENS2_10MouseMovedENS2_13MouseMovedRawENS2_12MouseEnteredENS2_9MouseLeftENS2_21JoystickButtonPressedENS2_22JoystickButtonReleasedENS2_13JoystickMovedENS2_17JoystickConnectedENS2_20JoystickDisconnectedENS2_10TouchBeganENS2_10TouchMovedENS2_10TouchEndedENS2_13SensorChangedEEEEu13__add_pointerIKNS_19variant_alternativeIXT_ENS_7variantIJDpT0_EEEE4typeEEPKSU_, symObjAddr: 0xF8C8, symBinAddr: 0x100012330, symSize: 0x24 }
  - { offset: 0x2B582, size: 0x8, addend: 0x0, symName: __ZNSt3__116__generic_get_ifB8ne180100ILm14EKNS_7variantIJN2sf5Event6ClosedENS3_7ResizedENS3_9FocusLostENS3_11FocusGainedENS3_11TextEnteredENS3_10KeyPressedENS3_11KeyReleasedENS3_18MouseWheelScrolledENS3_18MouseButtonPressedENS3_19MouseButtonReleasedENS3_10MouseMovedENS3_13MouseMovedRawENS3_12MouseEnteredENS3_9MouseLeftENS3_21JoystickButtonPressedENS3_22JoystickButtonReleasedENS3_13JoystickMovedENS3_17JoystickConnectedENS3_20JoystickDisconnectedENS3_10TouchBeganENS3_10TouchMovedENS3_10TouchEndedENS3_13SensorChangedEEEEEEPDaPT0_, symObjAddr: 0xF8EC, symBinAddr: 0x100012354, symSize: 0x70 }
  - { offset: 0x2B5CE, size: 0x8, addend: 0x0, symName: __ZNSt3__113__rewrap_iterB8ne180100INS_11__wrap_iterIPiEES2_NS_18__unwrap_iter_implIS3_Lb1EEEEET_S6_T0_, symObjAddr: 0xFC34, symBinAddr: 0x10001269C, symSize: 0x4C }
  - { offset: 0x2B626, size: 0x8, addend: 0x0, symName: __ZNSt3__111__find_implB8ne180100IPiS1_jNS_10__identityEEET_S3_T0_RKT1_RT2_, symObjAddr: 0xFC80, symBinAddr: 0x1000126E8, symSize: 0x88 }
  - { offset: 0x2B6A5, size: 0x8, addend: 0x0, symName: __ZNSt3__113__unwrap_iterB8ne180100INS_11__wrap_iterIPiEENS_18__unwrap_iter_implIS3_Lb1EEELi0EEEDTclsrT0_8__unwrapclsr3stdE7declvalIT_EEEES7_, symObjAddr: 0xFD08, symBinAddr: 0x100012770, symSize: 0x2C }
  - { offset: 0x2B73E, size: 0x8, addend: 0x0, symName: __ZNSt3__112__to_addressB8ne180100INS_11__wrap_iterIPiEEvEEu7__decayIDTclsr19__to_address_helperIT_EE6__callclsr3stdE7declvalIRKS4_EEEEES6_, symObjAddr: 0xFDCC, symBinAddr: 0x100012834, symSize: 0x24 }
  - { offset: 0x2B81B, size: 0x8, addend: 0x0, symName: __ZNSt3__18__invokeB8ne180100IRNS_10__identityEJRiEEEDTclclsr3stdE7declvalIT_EEspclsr3stdE7declvalIT0_EEEEOS4_DpOS5_, symObjAddr: 0xFE74, symBinAddr: 0x1000128DC, symSize: 0x2C }
  - { offset: 0x2B89C, size: 0x8, addend: 0x0, symName: __ZNSt3__119__allocate_at_leastB8ne180100INS_9allocatorI6PlayerEEEENS_19__allocation_resultINS_16allocator_traitsIT_E7pointerEEERS6_m, symObjAddr: 0x10754, symBinAddr: 0x1000131BC, symSize: 0x40 }
  - { offset: 0x2B8E2, size: 0x8, addend: 0x0, symName: __ZNSt3__142__uninitialized_allocator_move_if_noexceptB8ne180100INS_9allocatorI6PlayerEENS_16reverse_iteratorIPS2_EES6_S6_EET2_RT_T0_T1_S7_, symObjAddr: 0x1090C, symBinAddr: 0x100013374, symSize: 0x12C }
  - { offset: 0x2B989, size: 0x8, addend: 0x0, symName: __ZNSt3__14swapB8ne180100IP6PlayerEENS_9enable_ifIXaasr21is_move_constructibleIT_EE5valuesr18is_move_assignableIS4_EE5valueEvE4typeERS4_S7_, symObjAddr: 0x10A84, symBinAddr: 0x1000134EC, symSize: 0x3C }
  - { offset: 0x2B9DE, size: 0x8, addend: 0x0, symName: __ZNSt3__122__make_exception_guardB8ne180100INS_29_AllocatorDestroyRangeReverseINS_9allocatorI6PlayerEENS_16reverse_iteratorIPS3_EEEEEENS_28__exception_guard_exceptionsIT_EESA_, symObjAddr: 0x10AD4, symBinAddr: 0x10001353C, symSize: 0x4C }
  - { offset: 0x2BA16, size: 0x8, addend: 0x0, symName: __ZNSt3__1neB8ne180100IP6PlayerS2_EEbRKNS_16reverse_iteratorIT_EERKNS3_IT0_EE, symObjAddr: 0x10B64, symBinAddr: 0x1000135CC, symSize: 0x48 }
  - { offset: 0x2BA65, size: 0x8, addend: 0x0, symName: __ZNSt3__112__to_addressB8ne180100INS_16reverse_iteratorIP6PlayerEEvEEu7__decayIDTclsr19__to_address_helperIT_EE6__callclsr3stdE7declvalIRKS5_EEEEES7_, symObjAddr: 0x10BE0, symBinAddr: 0x100013648, symSize: 0x24 }
  - { offset: 0x2BA9D, size: 0x8, addend: 0x0, symName: __ZNSt3__114__construct_atB8ne180100IN2sf6SpriteEJS2_EPS2_EEPT_S5_DpOT0_, symObjAddr: 0x11098, symBinAddr: 0x100013B00, symSize: 0x34 }
  - { offset: 0x2BB1C, size: 0x8, addend: 0x0, symName: __ZNSt3__119__allocator_destroyB8ne180100INS_9allocatorI6PlayerEENS_16reverse_iteratorINS4_IPS2_EEEES7_EEvRT_T0_T1_, symObjAddr: 0x1122C, symBinAddr: 0x100013C94, symSize: 0x70 }
  - { offset: 0x2BB85, size: 0x8, addend: 0x0, symName: __ZNSt3__1neB8ne180100INS_16reverse_iteratorIP6PlayerEES4_EEbRKNS1_IT_EERKNS1_IT0_EE, symObjAddr: 0x112D8, symBinAddr: 0x100013D40, symSize: 0x60 }
  - { offset: 0x2BBD4, size: 0x8, addend: 0x0, symName: __ZNSt3__112__to_addressB8ne180100INS_16reverse_iteratorINS1_IP6PlayerEEEEvEEu7__decayIDTclsr19__to_address_helperIT_EE6__callclsr3stdE7declvalIRKS6_EEEEES8_, symObjAddr: 0x11338, symBinAddr: 0x100013DA0, symSize: 0x24 }
  - { offset: 0x2BC35, size: 0x8, addend: 0x0, symName: __ZNSt3__119__allocate_at_leastB8ne180100INS_9allocatorIiEEEENS_19__allocation_resultINS_16allocator_traitsIT_E7pointerEEERS5_m, symObjAddr: 0x11E20, symBinAddr: 0x100014888, symSize: 0x40 }
  - { offset: 0x2BC7B, size: 0x8, addend: 0x0, symName: __ZNSt3__142__uninitialized_allocator_move_if_noexceptB8ne180100INS_9allocatorIiEENS_16reverse_iteratorIPiEES5_ivEET1_RT_T0_S9_S6_, symObjAddr: 0x11FD4, symBinAddr: 0x100014A3C, symSize: 0x78 }
  - { offset: 0x2BCFD, size: 0x8, addend: 0x0, symName: __ZNSt3__14swapB8ne180100IPiEENS_9enable_ifIXaasr21is_move_constructibleIT_EE5valuesr18is_move_assignableIS3_EE5valueEvE4typeERS3_S6_, symObjAddr: 0x12098, symBinAddr: 0x100014B00, symSize: 0x3C }
  - { offset: 0x2BD52, size: 0x8, addend: 0x0, symName: __ZNSt3__14moveB8ne180100INS_16reverse_iteratorIPiEES3_EET0_T_S5_S4_, symObjAddr: 0x120E8, symBinAddr: 0x100014B50, symSize: 0x78 }
  - { offset: 0x2BDB0, size: 0x8, addend: 0x0, symName: __ZNSt3__16__moveB8ne180100INS_17_ClassicAlgPolicyENS_16reverse_iteratorIPiEES4_S4_EENS_4pairIT0_T2_EES6_T1_S7_, symObjAddr: 0x12160, symBinAddr: 0x100014BC8, symSize: 0x64 }
  - { offset: 0x2BE20, size: 0x8, addend: 0x0, symName: __ZNSt3__123__dispatch_copy_or_moveB8ne180100INS_17_ClassicAlgPolicyENS_11__move_loopIS1_EENS_14__move_trivialENS_16reverse_iteratorIPiEES7_S7_EENS_4pairIT2_T4_EES9_T3_SA_, symObjAddr: 0x121C4, symBinAddr: 0x100014C2C, symSize: 0x64 }
  - { offset: 0x2BEA2, size: 0x8, addend: 0x0, symName: __ZNSt3__121__unwrap_and_dispatchB8ne180100INS_10__overloadINS_11__move_loopINS_17_ClassicAlgPolicyEEENS_14__move_trivialEEENS_16reverse_iteratorIPiEES9_S9_Li0EEENS_4pairIT0_T2_EESB_T1_SC_, symObjAddr: 0x12228, symBinAddr: 0x100014C90, symSize: 0x12C }
  - { offset: 0x2BF38, size: 0x8, addend: 0x0, symName: __ZNSt3__114__unwrap_rangeB8ne180100INS_16reverse_iteratorIPiEES3_EENS_4pairIT0_S5_EET_S7_, symObjAddr: 0x12354, symBinAddr: 0x100014DBC, symSize: 0x84 }
  - { offset: 0x2C0F5, size: 0x8, addend: 0x0, symName: __ZNSt3__113__unwrap_iterB8ne180100INS_16reverse_iteratorIPiEENS_18__unwrap_iter_implIS3_Lb0EEELi0EEEDTclsrT0_8__unwrapclsr3stdE7declvalIT_EEEES7_, symObjAddr: 0x12478, symBinAddr: 0x100014EE0, symSize: 0x44 }
  - { offset: 0x2C13B, size: 0x8, addend: 0x0, symName: __ZNSt3__19make_pairB8ne180100INS_16reverse_iteratorIPiEES3_EENS_4pairINS_18__unwrap_ref_decayIT_E4typeENS5_IT0_E4typeEEEOS6_OS9_, symObjAddr: 0x124BC, symBinAddr: 0x100014F24, symSize: 0x38 }
  - { offset: 0x2C18D, size: 0x8, addend: 0x0, symName: __ZNSt3__114__rewrap_rangeB8ne180100INS_16reverse_iteratorIPiEES3_EET_S4_T0_, symObjAddr: 0x124F4, symBinAddr: 0x100014F5C, symSize: 0x5C }
  - { offset: 0x2C1DC, size: 0x8, addend: 0x0, symName: __ZNSt3__113__rewrap_iterB8ne180100INS_16reverse_iteratorIPiEES3_NS_18__unwrap_iter_implIS3_Lb0EEEEET_S6_T0_, symObjAddr: 0x12550, symBinAddr: 0x100014FB8, symSize: 0x74 }
  - { offset: 0x2C234, size: 0x8, addend: 0x0, symName: __ZNSt3__1neB8ne180100IPiS1_EEbRKNS_16reverse_iteratorIT_EERKNS2_IT0_EE, symObjAddr: 0x125C4, symBinAddr: 0x10001502C, symSize: 0x48 }
  - { offset: 0x2C371, size: 0x8, addend: 0x0, symName: __ZNSt3__134__libcpp_atomic_refcount_incrementB8ne180100IlEET_RS1_, symObjAddr: 0x12A94, symBinAddr: 0x1000154FC, symSize: 0x30 }
  - { offset: 0x2C3A8, size: 0x8, addend: 0x0, symName: __ZNSt3__119__allocate_at_leastB8ne180100INS_9allocatorI9BoomerangEEEENS_19__allocation_resultINS_16allocator_traitsIT_E7pointerEEERS6_m, symObjAddr: 0x13320, symBinAddr: 0x100015D88, symSize: 0x40 }
  - { offset: 0x2C3EE, size: 0x8, addend: 0x0, symName: __ZNSt3__142__uninitialized_allocator_move_if_noexceptB8ne180100INS_9allocatorI9BoomerangEENS_16reverse_iteratorIPS2_EES6_S6_EET2_RT_T0_T1_S7_, symObjAddr: 0x134D8, symBinAddr: 0x100015F40, symSize: 0x12C }
  - { offset: 0x2C495, size: 0x8, addend: 0x0, symName: __ZNSt3__14swapB8ne180100IP9BoomerangEENS_9enable_ifIXaasr21is_move_constructibleIT_EE5valuesr18is_move_assignableIS4_EE5valueEvE4typeERS4_S7_, symObjAddr: 0x13650, symBinAddr: 0x1000160B8, symSize: 0x3C }
  - { offset: 0x2C4EA, size: 0x8, addend: 0x0, symName: __ZNSt3__122__make_exception_guardB8ne180100INS_29_AllocatorDestroyRangeReverseINS_9allocatorI9BoomerangEENS_16reverse_iteratorIPS3_EEEEEENS_28__exception_guard_exceptionsIT_EESA_, symObjAddr: 0x136A0, symBinAddr: 0x100016108, symSize: 0x4C }
  - { offset: 0x2C522, size: 0x8, addend: 0x0, symName: __ZNSt3__1neB8ne180100IP9BoomerangS2_EEbRKNS_16reverse_iteratorIT_EERKNS3_IT0_EE, symObjAddr: 0x13730, symBinAddr: 0x100016198, symSize: 0x48 }
  - { offset: 0x2C571, size: 0x8, addend: 0x0, symName: __ZNSt3__112__to_addressB8ne180100INS_16reverse_iteratorIP9BoomerangEEvEEu7__decayIDTclsr19__to_address_helperIT_EE6__callclsr3stdE7declvalIRKS5_EEEEES7_, symObjAddr: 0x137AC, symBinAddr: 0x100016214, symSize: 0x24 }
  - { offset: 0x2C5D2, size: 0x8, addend: 0x0, symName: __ZNSt3__119__allocator_destroyB8ne180100INS_9allocatorI9BoomerangEENS_16reverse_iteratorINS4_IPS2_EEEES7_EEvRT_T0_T1_, symObjAddr: 0x13B68, symBinAddr: 0x1000165D0, symSize: 0x70 }
  - { offset: 0x2C63B, size: 0x8, addend: 0x0, symName: __ZNSt3__1neB8ne180100INS_16reverse_iteratorIP9BoomerangEES4_EEbRKNS1_IT_EERKNS1_IT0_EE, symObjAddr: 0x13C14, symBinAddr: 0x10001667C, symSize: 0x60 }
  - { offset: 0x2C68A, size: 0x8, addend: 0x0, symName: __ZNSt3__112__to_addressB8ne180100INS_16reverse_iteratorINS1_IP9BoomerangEEEEvEEu7__decayIDTclsr19__to_address_helperIT_EE6__callclsr3stdE7declvalIRKS6_EEEEES8_, symObjAddr: 0x13C74, symBinAddr: 0x1000166DC, symSize: 0x24 }
  - { offset: 0x2C6EB, size: 0x8, addend: 0x0, symName: '__ZNSt3__17find_ifB8ne180100INS_11__wrap_iterIP9BoomerangEERZ4mainE3$_0EET_S7_S7_T0_', symObjAddr: 0x14060, symBinAddr: 0x100016AC8, symSize: 0x80 }
  - { offset: 0x2C749, size: 0x8, addend: 0x0, symName: __ZNSt3__1miB8ne180100IPK9BoomerangPS1_EEDTmicldtfp_4baseEcldtfp0_4baseEERKNS_11__wrap_iterIT_EERKNS6_IT0_EE, symObjAddr: 0x14614, symBinAddr: 0x10001707C, symSize: 0x48 }
  - { offset: 0x2C798, size: 0x8, addend: 0x0, symName: __ZNSt3__1neB8ne180100IPK9BoomerangEEbRKNS_11__wrap_iterIT_EES8_, symObjAddr: 0x1465C, symBinAddr: 0x1000170C4, symSize: 0x34 }
  - { offset: 0x2C7DE, size: 0x8, addend: 0x0, symName: __ZNSt3__14moveB8ne180100IP9BoomerangS2_EET0_T_S4_S3_, symObjAddr: 0x146DC, symBinAddr: 0x100017144, symSize: 0x40 }
  - { offset: 0x2C83C, size: 0x8, addend: 0x0, symName: __ZNSt3__1miB8ne180100IPK9BoomerangS3_EEDTmicldtfp_4baseEcldtfp0_4baseEERKNS_11__wrap_iterIT_EERKNS5_IT0_EE, symObjAddr: 0x1471C, symBinAddr: 0x100017184, symSize: 0x48 }
  - { offset: 0x2C88B, size: 0x8, addend: 0x0, symName: __ZNSt3__1eqB8ne180100IPK9BoomerangEEbRKNS_11__wrap_iterIT_EES8_, symObjAddr: 0x1477C, symBinAddr: 0x1000171E4, symSize: 0x48 }
  - { offset: 0x2C8D1, size: 0x8, addend: 0x0, symName: __ZNSt3__16__moveB8ne180100INS_17_ClassicAlgPolicyEP9BoomerangS3_S3_EENS_4pairIT0_T2_EES5_T1_S6_, symObjAddr: 0x147D8, symBinAddr: 0x100017240, symSize: 0x44 }
  - { offset: 0x2C941, size: 0x8, addend: 0x0, symName: __ZNSt3__123__dispatch_copy_or_moveB8ne180100INS_17_ClassicAlgPolicyENS_11__move_loopIS1_EENS_14__move_trivialEP9BoomerangS6_S6_EENS_4pairIT2_T4_EES8_T3_S9_, symObjAddr: 0x1481C, symBinAddr: 0x100017284, symSize: 0x44 }
  - { offset: 0x2C9C3, size: 0x8, addend: 0x0, symName: __ZNSt3__121__unwrap_and_dispatchB8ne180100INS_10__overloadINS_11__move_loopINS_17_ClassicAlgPolicyEEENS_14__move_trivialEEEP9BoomerangS8_S8_Li0EEENS_4pairIT0_T2_EESA_T1_SB_, symObjAddr: 0x14860, symBinAddr: 0x1000172C8, symSize: 0xB4 }
  - { offset: 0x2CA57, size: 0x8, addend: 0x0, symName: __ZNSt3__114__unwrap_rangeB8ne180100IP9BoomerangS2_EENS_4pairIT0_S4_EET_S6_, symObjAddr: 0x14914, symBinAddr: 0x10001737C, symSize: 0x60 }
  - { offset: 0x2CB7A, size: 0x8, addend: 0x0, symName: __ZNSt3__113__unwrap_iterB8ne180100IP9BoomerangNS_18__unwrap_iter_implIS2_Lb1EEELi0EEEDTclsrT0_8__unwrapclsr3stdE7declvalIT_EEEES6_, symObjAddr: 0x14A04, symBinAddr: 0x10001746C, symSize: 0x24 }
  - { offset: 0x2CBC0, size: 0x8, addend: 0x0, symName: __ZNSt3__19make_pairB8ne180100IP9BoomerangS2_EENS_4pairINS_18__unwrap_ref_decayIT_E4typeENS4_IT0_E4typeEEEOS5_OS8_, symObjAddr: 0x14A28, symBinAddr: 0x100017490, symSize: 0x38 }
  - { offset: 0x2CC12, size: 0x8, addend: 0x0, symName: __ZNSt3__114__rewrap_rangeB8ne180100IP9BoomerangS2_EET_S3_T0_, symObjAddr: 0x14A60, symBinAddr: 0x1000174C8, symSize: 0x2C }
  - { offset: 0x2CC61, size: 0x8, addend: 0x0, symName: __ZNSt3__113__rewrap_iterB8ne180100IP9BoomerangS2_NS_18__unwrap_iter_implIS2_Lb1EEEEET_S5_T0_, symObjAddr: 0x14A8C, symBinAddr: 0x1000174F4, symSize: 0x3C }
  - { offset: 0x2E3B6, size: 0x8, addend: 0x0, symName: __ZSt28__throw_bad_array_new_lengthB8ne180100v, symObjAddr: 0x61C8, symBinAddr: 0x100008C30, symSize: 0x34 }
  - { offset: 0x30F42, size: 0x8, addend: 0x0, symName: __ZNSt3__16vectorIN2sf6SpriteENS_9allocatorIS2_EEE26__swap_out_circular_bufferERNS_14__split_bufferIS2_RS4_EE, symObjAddr: 0x9478, symBinAddr: 0x10000BEE0, symSize: 0x110 }
  - { offset: 0x31175, size: 0x8, addend: 0x0, symName: __ZNSt3__16vectorIN2sf14RectangleShapeENS_9allocatorIS2_EEE26__swap_out_circular_bufferERNS_14__split_bufferIS2_RS4_EE, symObjAddr: 0xD408, symBinAddr: 0x10000FE70, symSize: 0x110 }
  - { offset: 0x316F8, size: 0x8, addend: 0x0, symName: __ZNSt3__16vectorI6PlayerNS_9allocatorIS1_EEE26__swap_out_circular_bufferERNS_14__split_bufferIS1_RS3_EE, symObjAddr: 0x103DC, symBinAddr: 0x100012E44, symSize: 0x110 }
  - { offset: 0x31791, size: 0x8, addend: 0x0, symName: __ZNSt3__16vectorIiNS_9allocatorIiEEE26__swap_out_circular_bufferERNS_14__split_bufferIiRS2_EE, symObjAddr: 0x11AC0, symBinAddr: 0x100014528, symSize: 0x110 }
  - { offset: 0x317EA, size: 0x8, addend: 0x0, symName: __ZNSt3__16vectorI9BoomerangNS_9allocatorIS1_EEE26__swap_out_circular_bufferERNS_14__split_bufferIS1_RS3_EE, symObjAddr: 0x12FA8, symBinAddr: 0x100015A10, symSize: 0x110 }
  - { offset: 0x31897, size: 0x8, addend: 0x0, symName: __Z10bnormalizeRKN2sf7Vector2IfEE, symObjAddr: 0x0, symBinAddr: 0x100002A68, symSize: 0xA4 }
  - { offset: 0x318D4, size: 0x8, addend: 0x0, symName: __ZN2sf7Vector2IfEC1Eff, symObjAddr: 0xBC, symBinAddr: 0x100002B24, symSize: 0x3C }
  - { offset: 0x3191E, size: 0x8, addend: 0x0, symName: _main, symObjAddr: 0xF8, symBinAddr: 0x100002B60, symSize: 0x2758 }
  - { offset: 0x320A4, size: 0x8, addend: 0x0, symName: __ZN2sf7Vector2IjEC1Ejj, symObjAddr: 0x2850, symBinAddr: 0x1000052B8, symSize: 0x3C }
  - { offset: 0x320EE, size: 0x8, addend: 0x0, symName: __ZN2sf6StringD1Ev, symObjAddr: 0x288C, symBinAddr: 0x1000052F4, symSize: 0x2C }
  - { offset: 0x32133, size: 0x8, addend: 0x0, symName: __ZNSt3__14__fs10filesystem4pathC1B8ne180100IA17_cvEERKT_NS2_6formatE, symObjAddr: 0x28B8, symBinAddr: 0x100005320, symSize: 0x3C }
  - { offset: 0x32183, size: 0x8, addend: 0x0, symName: __ZN2sf4RectIiEC1Ev, symObjAddr: 0x28F4, symBinAddr: 0x10000535C, symSize: 0x2C }
  - { offset: 0x321AD, size: 0x8, addend: 0x0, symName: __ZNSt3__14__fs10filesystem4pathD1B8ne180100Ev, symObjAddr: 0x2920, symBinAddr: 0x100005388, symSize: 0x2C }
  - { offset: 0x321D7, size: 0x8, addend: 0x0, symName: __ZNSt3__113basic_ostreamIcNS_11char_traitsIcEEElsB8ne180100EPFRS3_S4_E, symObjAddr: 0x2994, symBinAddr: 0x1000053FC, symSize: 0x2C }
  - { offset: 0x32225, size: 0x8, addend: 0x0, symName: __ZNSt3__14__fs10filesystem4pathC1B8ne180100IA22_cvEERKT_NS2_6formatE, symObjAddr: 0x2A18, symBinAddr: 0x100005480, symSize: 0x3C }
  - { offset: 0x32275, size: 0x8, addend: 0x0, symName: __ZN2sf7Vector2IfEC1Ev, symObjAddr: 0x2A54, symBinAddr: 0x1000054BC, symSize: 0x2C }
  - { offset: 0x3229F, size: 0x8, addend: 0x0, symName: __ZN2sf5ColorC1Ehhhh, symObjAddr: 0x2A80, symBinAddr: 0x1000054E8, symSize: 0x4C }
  - { offset: 0x32307, size: 0x8, addend: 0x0, symName: __ZNKSt3__110shared_ptrIN2sf7TextureEEptB8ne180100Ev, symObjAddr: 0x2B04, symBinAddr: 0x10000556C, symSize: 0x18 }
  - { offset: 0x32346, size: 0x8, addend: 0x0, symName: __ZNSt3__14__fs10filesystem4pathC1B8ne180100IA19_cvEERKT_NS2_6formatE, symObjAddr: 0x2B1C, symBinAddr: 0x100005584, symSize: 0x3C }
  - { offset: 0x32396, size: 0x8, addend: 0x0, symName: __ZNSt3__16vectorINS_10shared_ptrIN2sf7TextureEEENS_9allocatorIS4_EEEC1Em, symObjAddr: 0x2B58, symBinAddr: 0x1000055C0, symSize: 0x34 }
  - { offset: 0x323D7, size: 0x8, addend: 0x0, symName: __ZNSt3__112basic_stringIcNS_11char_traitsIcEENS_9allocatorIcEEEC1B8ne180100ILi0EEEPKc, symObjAddr: 0x2B8C, symBinAddr: 0x1000055F4, symSize: 0x34 }
  - { offset: 0x32417, size: 0x8, addend: 0x0, symName: __ZNSt3__16vectorINS_10shared_ptrIN2sf7TextureEEENS_9allocatorIS4_EEEixB8ne180100Em, symObjAddr: 0x2BC0, symBinAddr: 0x100005628, symSize: 0x24 }
  - { offset: 0x3244F, size: 0x8, addend: 0x0, symName: __ZNSt3__110shared_ptrIN2sf7TextureEEaSB8ne180100EOS3_, symObjAddr: 0x2BE4, symBinAddr: 0x10000564C, symSize: 0x50 }
  - { offset: 0x32485, size: 0x8, addend: 0x0, symName: __ZNSt3__110shared_ptrIN2sf7TextureEED1B8ne180100Ev, symObjAddr: 0x2C34, symBinAddr: 0x10000569C, symSize: 0x2C }
  - { offset: 0x324AF, size: 0x8, addend: 0x0, symName: __ZNSt3__14__fs10filesystem4pathC1B8ne180100INS_12basic_stringIcNS_11char_traitsIcEENS_9allocatorIcEEEEvEERKT_NS2_6formatE, symObjAddr: 0x2C60, symBinAddr: 0x1000056C8, symSize: 0x3C }
  - { offset: 0x324FF, size: 0x8, addend: 0x0, symName: __ZNSt3__16vectorIN2sf6SpriteENS_9allocatorIS2_EEEC1B8ne180100Ev, symObjAddr: 0x2CE8, symBinAddr: 0x100005750, symSize: 0x2C }
  - { offset: 0x32529, size: 0x8, addend: 0x0, symName: __ZNKSt3__110shared_ptrIN2sf7TextureEEdeB8ne180100Ev, symObjAddr: 0x2D14, symBinAddr: 0x10000577C, symSize: 0x18 }
  - { offset: 0x3254F, size: 0x8, addend: 0x0, symName: __ZNSt3__16vectorIN2sf6SpriteENS_9allocatorIS2_EEE9push_backB8ne180100ERKS2_, symObjAddr: 0x2D2C, symBinAddr: 0x100005794, symSize: 0x90 }
  - { offset: 0x32597, size: 0x8, addend: 0x0, symName: __ZN2sf7Vector2IiEC1Eii, symObjAddr: 0x2DBC, symBinAddr: 0x100005824, symSize: 0x3C }
  - { offset: 0x325E1, size: 0x8, addend: 0x0, symName: __ZN2sf4RectIiEC1ENS_7Vector2IiEES3_, symObjAddr: 0x2DF8, symBinAddr: 0x100005860, symSize: 0x3C }
  - { offset: 0x3262B, size: 0x8, addend: 0x0, symName: __ZN2sf6SpriteD1Ev, symObjAddr: 0x2E34, symBinAddr: 0x10000589C, symSize: 0x2C }
  - { offset: 0x32670, size: 0x8, addend: 0x0, symName: __ZNSt3__14__fs10filesystem4pathC1B8ne180100IA21_cvEERKT_NS2_6formatE, symObjAddr: 0x2E60, symBinAddr: 0x1000058C8, symSize: 0x3C }
  - { offset: 0x326C0, size: 0x8, addend: 0x0, symName: __ZNSt3__16vectorINS_12basic_stringIcNS_11char_traitsIcEENS_9allocatorIcEEEENS4_IS6_EEEC1B8ne180100ESt16initializer_listIS6_E, symObjAddr: 0x2E9C, symBinAddr: 0x100005904, symSize: 0x3C }
  - { offset: 0x326FC, size: 0x8, addend: 0x0, symName: __ZNSt3__16vectorIN2sf14RectangleShapeENS_9allocatorIS2_EEEC1B8ne180100Ev, symObjAddr: 0x2ED8, symBinAddr: 0x100005940, symSize: 0x2C }
  - { offset: 0x32726, size: 0x8, addend: 0x0, symName: __ZNKSt3__16vectorINS_12basic_stringIcNS_11char_traitsIcEENS_9allocatorIcEEEENS4_IS6_EEE4sizeB8ne180100Ev, symObjAddr: 0x2F04, symBinAddr: 0x10000596C, symSize: 0x28 }
  - { offset: 0x3274C, size: 0x8, addend: 0x0, symName: __ZNSt3__16vectorINS_12basic_stringIcNS_11char_traitsIcEENS_9allocatorIcEEEENS4_IS6_EEEixB8ne180100Em, symObjAddr: 0x2F2C, symBinAddr: 0x100005994, symSize: 0x2C }
  - { offset: 0x32784, size: 0x8, addend: 0x0, symName: __ZNKSt3__112basic_stringIcNS_11char_traitsIcEENS_9allocatorIcEEE4sizeB8ne180100Ev, symObjAddr: 0x2F58, symBinAddr: 0x1000059C0, symSize: 0x54 }
  - { offset: 0x327AA, size: 0x8, addend: 0x0, symName: __ZNSt3__112basic_stringIcNS_11char_traitsIcEENS_9allocatorIcEEEixB8ne180100Em, symObjAddr: 0x2FAC, symBinAddr: 0x100005A14, symSize: 0x48 }
  - { offset: 0x327E0, size: 0x8, addend: 0x0, symName: __ZNSt3__16vectorIN2sf14RectangleShapeENS_9allocatorIS2_EEE9push_backB8ne180100ERKS2_, symObjAddr: 0x2FF4, symBinAddr: 0x100005A5C, symSize: 0x90 }
  - { offset: 0x32828, size: 0x8, addend: 0x0, symName: __ZN2sf14RectangleShapeD1Ev, symObjAddr: 0x3084, symBinAddr: 0x100005AEC, symSize: 0x2C }
  - { offset: 0x32854, size: 0x8, addend: 0x0, symName: __ZNSt3__16vectorI6PlayerNS_9allocatorIS1_EEEC1B8ne180100Ev, symObjAddr: 0x30B0, symBinAddr: 0x100005B18, symSize: 0x2C }
  - { offset: 0x3287E, size: 0x8, addend: 0x0, symName: __ZNSt3__16vectorI9BoomerangNS_9allocatorIS1_EEEC1B8ne180100Ev, symObjAddr: 0x30DC, symBinAddr: 0x100005B44, symSize: 0x2C }
  - { offset: 0x328A8, size: 0x8, addend: 0x0, symName: __ZNSt3__16vectorIiNS_9allocatorIiEEEC1B8ne180100Ev, symObjAddr: 0x3108, symBinAddr: 0x100005B70, symSize: 0x2C }
  - { offset: 0x328D2, size: 0x8, addend: 0x0, symName: __ZNKSt3__18optionalIN2sf5EventEEcvbB8ne180100Ev, symObjAddr: 0x3134, symBinAddr: 0x100005B9C, symSize: 0x28 }
  - { offset: 0x328F8, size: 0x8, addend: 0x0, symName: __ZNKSt3__18optionalIN2sf5EventEEptB8ne180100Ev, symObjAddr: 0x315C, symBinAddr: 0x100005BC4, symSize: 0x24 }
  - { offset: 0x32923, size: 0x8, addend: 0x0, symName: __ZNK2sf5Event2isINS0_6ClosedEEEbv, symObjAddr: 0x3180, symBinAddr: 0x100005BE8, symSize: 0x28 }
  - { offset: 0x32952, size: 0x8, addend: 0x0, symName: __ZNK2sf5Event2isINS0_21JoystickButtonPressedEEEbv, symObjAddr: 0x31A8, symBinAddr: 0x100005C10, symSize: 0x28 }
  - { offset: 0x3298B, size: 0x8, addend: 0x0, symName: __ZNK2sf5Event5getIfINS0_21JoystickButtonPressedEEEPKT_v, symObjAddr: 0x31D0, symBinAddr: 0x100005C38, symSize: 0x24 }
  - { offset: 0x329BA, size: 0x8, addend: 0x0, symName: __ZNSt3__16vectorIiNS_9allocatorIiEEE5beginB8ne180100Ev, symObjAddr: 0x32A0, symBinAddr: 0x100005D08, symSize: 0x30 }
  - { offset: 0x329E2, size: 0x8, addend: 0x0, symName: __ZNSt3__16vectorIiNS_9allocatorIiEEE3endB8ne180100Ev, symObjAddr: 0x32D0, symBinAddr: 0x100005D38, symSize: 0x30 }
  - { offset: 0x32A0A, size: 0x8, addend: 0x0, symName: __ZNKSt3__16vectorI6PlayerNS_9allocatorIS1_EEE4sizeB8ne180100Ev, symObjAddr: 0x3300, symBinAddr: 0x100005D68, symSize: 0x28 }
  - { offset: 0x32A36, size: 0x8, addend: 0x0, symName: __ZNSt3__16vectorI6PlayerNS_9allocatorIS1_EEE12emplace_backIJRfS6_RiRjRNS_10shared_ptrIN2sf7TextureEEEEEERS1_DpOT_, symObjAddr: 0x3328, symBinAddr: 0x100005D90, symSize: 0xC8 }
  - { offset: 0x32ADD, size: 0x8, addend: 0x0, symName: __ZNSt3__16vectorIiNS_9allocatorIiEEE9push_backB8ne180100EOi, symObjAddr: 0x33F0, symBinAddr: 0x100005E58, symSize: 0x90 }
  - { offset: 0x32B25, size: 0x8, addend: 0x0, symName: __ZNKSt3__16vectorI6PlayerNS_9allocatorIS1_EEE5emptyB8ne180100Ev, symObjAddr: 0x3480, symBinAddr: 0x100005EE8, symSize: 0x28 }
  - { offset: 0x32B4B, size: 0x8, addend: 0x0, symName: __ZNSt3__16vectorIN2sf6SpriteENS_9allocatorIS2_EEEixB8ne180100Em, symObjAddr: 0x34A8, symBinAddr: 0x100005F10, symSize: 0x2C }
  - { offset: 0x32B83, size: 0x8, addend: 0x0, symName: __ZNSt3__16vectorI6PlayerNS_9allocatorIS1_EEE5beginB8ne180100Ev, symObjAddr: 0x34D4, symBinAddr: 0x100005F3C, symSize: 0x30 }
  - { offset: 0x32BAB, size: 0x8, addend: 0x0, symName: __ZNSt3__16vectorI6PlayerNS_9allocatorIS1_EEE3endB8ne180100Ev, symObjAddr: 0x3504, symBinAddr: 0x100005F6C, symSize: 0x30 }
  - { offset: 0x32BD3, size: 0x8, addend: 0x0, symName: __ZNKSt3__111__wrap_iterIP6PlayerEdeB8ne180100Ev, symObjAddr: 0x3568, symBinAddr: 0x100005FD0, symSize: 0x18 }
  - { offset: 0x32BF9, size: 0x8, addend: 0x0, symName: __Z3absB8ne180100f, symObjAddr: 0x3580, symBinAddr: 0x100005FE8, symSize: 0x18 }
  - { offset: 0x32C27, size: 0x8, addend: 0x0, symName: __ZNKSt3__16vectorI9BoomerangNS_9allocatorIS1_EEE4sizeB8ne180100Ev, symObjAddr: 0x3598, symBinAddr: 0x100006000, symSize: 0x28 }
  - { offset: 0x32C4D, size: 0x8, addend: 0x0, symName: __ZNSt3__110shared_ptrIN2sf7TextureEEC1B8ne180100ERKS3_, symObjAddr: 0x35C0, symBinAddr: 0x100006028, symSize: 0x34 }
  - { offset: 0x32C87, size: 0x8, addend: 0x0, symName: __ZNSt3__16vectorI9BoomerangNS_9allocatorIS1_EEE9push_backB8ne180100ERKS1_, symObjAddr: 0x35F4, symBinAddr: 0x10000605C, symSize: 0x90 }
  - { offset: 0x32CCF, size: 0x8, addend: 0x0, symName: __ZN9BoomerangD1Ev, symObjAddr: 0x3684, symBinAddr: 0x1000060EC, symSize: 0x2C }
  - { offset: 0x32CFB, size: 0x8, addend: 0x0, symName: __ZNSt3__111__wrap_iterIP6PlayerEppB8ne180100Ev, symObjAddr: 0x36B0, symBinAddr: 0x100006118, symSize: 0x20 }
  - { offset: 0x32D21, size: 0x8, addend: 0x0, symName: __ZNSt3__16vectorI9BoomerangNS_9allocatorIS1_EEE5beginB8ne180100Ev, symObjAddr: 0x36D0, symBinAddr: 0x100006138, symSize: 0x30 }
  - { offset: 0x32D49, size: 0x8, addend: 0x0, symName: __ZNSt3__16vectorI9BoomerangNS_9allocatorIS1_EEE3endB8ne180100Ev, symObjAddr: 0x3700, symBinAddr: 0x100006168, symSize: 0x30 }
  - { offset: 0x32D71, size: 0x8, addend: 0x0, symName: __ZNKSt3__111__wrap_iterIP9BoomerangEdeB8ne180100Ev, symObjAddr: 0x3764, symBinAddr: 0x1000061CC, symSize: 0x18 }
  - { offset: 0x32D97, size: 0x8, addend: 0x0, symName: __ZNSt3__16vectorI6PlayerNS_9allocatorIS1_EEEixB8ne180100Em, symObjAddr: 0x377C, symBinAddr: 0x1000061E4, symSize: 0x2C }
  - { offset: 0x32DCF, size: 0x8, addend: 0x0, symName: __ZNSt3__111__wrap_iterIP9BoomerangEppB8ne180100Ev, symObjAddr: 0x37A8, symBinAddr: 0x100006210, symSize: 0x20 }
  - { offset: 0x32DF5, size: 0x8, addend: 0x0, symName: __ZNK2sf4RectIfE16findIntersectionERKS1_, symObjAddr: 0x37C8, symBinAddr: 0x100006230, symSize: 0x238 }
  - { offset: 0x32F47, size: 0x8, addend: 0x0, symName: __ZNKSt3__18optionalIN2sf4RectIfEEEcvbB8ne180100Ev, symObjAddr: 0x3A00, symBinAddr: 0x100006468, symSize: 0x28 }
  - { offset: 0x32F6D, size: 0x8, addend: 0x0, symName: __ZNSt3__16vectorI9BoomerangNS_9allocatorIS1_EEE5eraseENS_11__wrap_iterIPKS1_EES8_, symObjAddr: 0x3A28, symBinAddr: 0x100006490, symSize: 0xE0 }
  - { offset: 0x32FCB, size: 0x8, addend: 0x0, symName: __ZNSt3__111__wrap_iterIPK9BoomerangEC1B8ne180100IPS1_Li0EEERKNS0_IT_EE, symObjAddr: 0x3BFC, symBinAddr: 0x100006664, symSize: 0x34 }
  - { offset: 0x33013, size: 0x8, addend: 0x0, symName: __ZNSt3__16vectorIN2sf14RectangleShapeENS_9allocatorIS2_EEE5beginB8ne180100Ev, symObjAddr: 0x3C30, symBinAddr: 0x100006698, symSize: 0x30 }
  - { offset: 0x3303B, size: 0x8, addend: 0x0, symName: __ZNSt3__16vectorIN2sf14RectangleShapeENS_9allocatorIS2_EEE3endB8ne180100Ev, symObjAddr: 0x3C60, symBinAddr: 0x1000066C8, symSize: 0x30 }
  - { offset: 0x33063, size: 0x8, addend: 0x0, symName: __ZNKSt3__111__wrap_iterIPN2sf14RectangleShapeEEdeB8ne180100Ev, symObjAddr: 0x3CC4, symBinAddr: 0x10000672C, symSize: 0x18 }
  - { offset: 0x33089, size: 0x8, addend: 0x0, symName: __ZNSt3__111__wrap_iterIPN2sf14RectangleShapeEEppB8ne180100Ev, symObjAddr: 0x3CDC, symBinAddr: 0x100006744, symSize: 0x20 }
  - { offset: 0x330AF, size: 0x8, addend: 0x0, symName: __ZNSt3__16vectorIiNS_9allocatorIiEEED1B8ne180100Ev, symObjAddr: 0x3CFC, symBinAddr: 0x100006764, symSize: 0x2C }
  - { offset: 0x330D9, size: 0x8, addend: 0x0, symName: __ZNSt3__16vectorI9BoomerangNS_9allocatorIS1_EEED1B8ne180100Ev, symObjAddr: 0x3D28, symBinAddr: 0x100006790, symSize: 0x2C }
  - { offset: 0x33103, size: 0x8, addend: 0x0, symName: __ZNSt3__16vectorI6PlayerNS_9allocatorIS1_EEED1B8ne180100Ev, symObjAddr: 0x3D54, symBinAddr: 0x1000067BC, symSize: 0x2C }
  - { offset: 0x3312D, size: 0x8, addend: 0x0, symName: __ZNSt3__16vectorIN2sf14RectangleShapeENS_9allocatorIS2_EEED1B8ne180100Ev, symObjAddr: 0x3D80, symBinAddr: 0x1000067E8, symSize: 0x2C }
  - { offset: 0x33157, size: 0x8, addend: 0x0, symName: __ZNSt3__16vectorINS_12basic_stringIcNS_11char_traitsIcEENS_9allocatorIcEEEENS4_IS6_EEED1B8ne180100Ev, symObjAddr: 0x3DAC, symBinAddr: 0x100006814, symSize: 0x2C }
  - { offset: 0x33181, size: 0x8, addend: 0x0, symName: __ZNSt3__16vectorIN2sf6SpriteENS_9allocatorIS2_EEED1B8ne180100Ev, symObjAddr: 0x3DD8, symBinAddr: 0x100006840, symSize: 0x2C }
  - { offset: 0x331AB, size: 0x8, addend: 0x0, symName: __ZNSt3__16vectorINS_10shared_ptrIN2sf7TextureEEENS_9allocatorIS4_EEED1B8ne180100Ev, symObjAddr: 0x3E04, symBinAddr: 0x10000686C, symSize: 0x2C }
  - { offset: 0x331D5, size: 0x8, addend: 0x0, symName: __ZN2sf12RenderWindowD1Ev, symObjAddr: 0x3E30, symBinAddr: 0x100006898, symSize: 0x2C }
  - { offset: 0x33201, size: 0x8, addend: 0x0, symName: __ZN2sf7Vector2IfEC2Eff, symObjAddr: 0x3E5C, symBinAddr: 0x1000068C4, symSize: 0x2C }
  - { offset: 0x3324B, size: 0x8, addend: 0x0, symName: __ZN2sf7Vector2IjEC2Ejj, symObjAddr: 0x3E88, symBinAddr: 0x1000068F0, symSize: 0x2C }
  - { offset: 0x33295, size: 0x8, addend: 0x0, symName: __ZN2sf6StringD2Ev, symObjAddr: 0x3EB4, symBinAddr: 0x10000691C, symSize: 0x2C }
  - { offset: 0x332C1, size: 0x8, addend: 0x0, symName: __ZNSt3__112basic_stringIDiNS_11char_traitsIDiEENS_9allocatorIDiEEED1Ev, symObjAddr: 0x3EE0, symBinAddr: 0x100006948, symSize: 0x2C }
  - { offset: 0x332EB, size: 0x8, addend: 0x0, symName: __ZNSt3__112basic_stringIDiNS_11char_traitsIDiEENS_9allocatorIDiEEED2Ev, symObjAddr: 0x3F0C, symBinAddr: 0x100006974, symSize: 0x7C }
  - { offset: 0x33315, size: 0x8, addend: 0x0, symName: __ZNKSt3__112basic_stringIDiNS_11char_traitsIDiEENS_9allocatorIDiEEE17__annotate_deleteB8ne180100Ev, symObjAddr: 0x3F88, symBinAddr: 0x1000069F0, symSize: 0x10 }
  - { offset: 0x3333B, size: 0x8, addend: 0x0, symName: __ZNKSt3__112basic_stringIDiNS_11char_traitsIDiEENS_9allocatorIDiEEE9__is_longB8ne180100Ev, symObjAddr: 0x3F98, symBinAddr: 0x100006A00, symSize: 0x38 }
  - { offset: 0x33361, size: 0x8, addend: 0x0, symName: __ZNSt3__116allocator_traitsINS_9allocatorIDiEEE10deallocateB8ne180100ERS2_PDim, symObjAddr: 0x3FD0, symBinAddr: 0x100006A38, symSize: 0x34 }
  - { offset: 0x333A6, size: 0x8, addend: 0x0, symName: __ZNSt3__112basic_stringIDiNS_11char_traitsIDiEENS_9allocatorIDiEEE7__allocB8ne180100Ev, symObjAddr: 0x4004, symBinAddr: 0x100006A6C, symSize: 0x24 }
  - { offset: 0x333CC, size: 0x8, addend: 0x0, symName: __ZNSt3__112basic_stringIDiNS_11char_traitsIDiEENS_9allocatorIDiEEE18__get_long_pointerB8ne180100Ev, symObjAddr: 0x4028, symBinAddr: 0x100006A90, symSize: 0x28 }
  - { offset: 0x333F2, size: 0x8, addend: 0x0, symName: __ZNKSt3__112basic_stringIDiNS_11char_traitsIDiEENS_9allocatorIDiEEE14__get_long_capB8ne180100Ev, symObjAddr: 0x4050, symBinAddr: 0x100006AB8, symSize: 0x30 }
  - { offset: 0x33418, size: 0x8, addend: 0x0, symName: __ZNKSt3__117__compressed_pairINS_12basic_stringIDiNS_11char_traitsIDiEENS_9allocatorIDiEEE5__repES5_E5firstB8ne180100Ev, symObjAddr: 0x4080, symBinAddr: 0x100006AE8, symSize: 0x24 }
  - { offset: 0x3343E, size: 0x8, addend: 0x0, symName: __ZNKSt3__122__compressed_pair_elemINS_12basic_stringIDiNS_11char_traitsIDiEENS_9allocatorIDiEEE5__repELi0ELb0EE5__getB8ne180100Ev, symObjAddr: 0x40A4, symBinAddr: 0x100006B0C, symSize: 0x14 }
  - { offset: 0x33464, size: 0x8, addend: 0x0, symName: __ZNSt3__19allocatorIDiE10deallocateB8ne180100EPDim, symObjAddr: 0x40B8, symBinAddr: 0x100006B20, symSize: 0x40 }
  - { offset: 0x334A8, size: 0x8, addend: 0x0, symName: __ZNSt3__117__compressed_pairINS_12basic_stringIDiNS_11char_traitsIDiEENS_9allocatorIDiEEE5__repES5_E6secondB8ne180100Ev, symObjAddr: 0x4230, symBinAddr: 0x100006C98, symSize: 0x24 }
  - { offset: 0x334CE, size: 0x8, addend: 0x0, symName: __ZNSt3__122__compressed_pair_elemINS_9allocatorIDiEELi1ELb1EE5__getB8ne180100Ev, symObjAddr: 0x4254, symBinAddr: 0x100006CBC, symSize: 0x14 }
  - { offset: 0x334F4, size: 0x8, addend: 0x0, symName: __ZNSt3__117__compressed_pairINS_12basic_stringIDiNS_11char_traitsIDiEENS_9allocatorIDiEEE5__repES5_E5firstB8ne180100Ev, symObjAddr: 0x4268, symBinAddr: 0x100006CD0, symSize: 0x24 }
  - { offset: 0x3351A, size: 0x8, addend: 0x0, symName: __ZNSt3__122__compressed_pair_elemINS_12basic_stringIDiNS_11char_traitsIDiEENS_9allocatorIDiEEE5__repELi0ELb0EE5__getB8ne180100Ev, symObjAddr: 0x428C, symBinAddr: 0x100006CF4, symSize: 0x14 }
  - { offset: 0x33540, size: 0x8, addend: 0x0, symName: __ZN2sf4RectIiEC2Ev, symObjAddr: 0x42A0, symBinAddr: 0x100006D08, symSize: 0x40 }
  - { offset: 0x3356A, size: 0x8, addend: 0x0, symName: __ZN2sf7Vector2IiEC1Ev, symObjAddr: 0x42E0, symBinAddr: 0x100006D48, symSize: 0x2C }
  - { offset: 0x33594, size: 0x8, addend: 0x0, symName: __ZN2sf7Vector2IiEC2Ev, symObjAddr: 0x430C, symBinAddr: 0x100006D74, symSize: 0x1C }
  - { offset: 0x335BE, size: 0x8, addend: 0x0, symName: __ZNSt3__14__fs10filesystem4pathD2B8ne180100Ev, symObjAddr: 0x4328, symBinAddr: 0x100006D90, symSize: 0x2C }
  - { offset: 0x335E8, size: 0x8, addend: 0x0, symName: __ZN2sf7Vector2IfEC2Ev, symObjAddr: 0x4354, symBinAddr: 0x100006DBC, symSize: 0x20 }
  - { offset: 0x33612, size: 0x8, addend: 0x0, symName: __ZN2sf5ColorC2Ehhhh, symObjAddr: 0x4374, symBinAddr: 0x100006DDC, symSize: 0x44 }
  - { offset: 0x3367A, size: 0x8, addend: 0x0, symName: __ZN2sf7Vector2IiEC2Eii, symObjAddr: 0x43B8, symBinAddr: 0x100006E20, symSize: 0x2C }
  - { offset: 0x336C4, size: 0x8, addend: 0x0, symName: __ZN2sf4RectIiEC2ENS_7Vector2IiEES3_, symObjAddr: 0x43E4, symBinAddr: 0x100006E4C, symSize: 0x2C }
  - { offset: 0x3370E, size: 0x8, addend: 0x0, symName: __ZN2sf6SpriteD2Ev, symObjAddr: 0x4410, symBinAddr: 0x100006E78, symSize: 0x38 }
  - { offset: 0x3373A, size: 0x8, addend: 0x0, symName: __ZThn8_N2sf6SpriteD1Ev, symObjAddr: 0x4448, symBinAddr: 0x100006EB0, symSize: 0x1C }
  - { offset: 0x33750, size: 0x8, addend: 0x0, symName: __ZN2sf13TransformableD2Ev, symObjAddr: 0x4464, symBinAddr: 0x100006ECC, symSize: 0x14 }
  - { offset: 0x3377A, size: 0x8, addend: 0x0, symName: __ZN2sf8DrawableD2Ev, symObjAddr: 0x4478, symBinAddr: 0x100006EE0, symSize: 0x14 }
  - { offset: 0x337A4, size: 0x8, addend: 0x0, symName: __ZN2sf14RectangleShapeD2Ev, symObjAddr: 0x448C, symBinAddr: 0x100006EF4, symSize: 0x2C }
  - { offset: 0x337D0, size: 0x8, addend: 0x0, symName: __ZThn8_N2sf14RectangleShapeD1Ev, symObjAddr: 0x44B8, symBinAddr: 0x100006F20, symSize: 0x1C }
  - { offset: 0x337E6, size: 0x8, addend: 0x0, symName: __ZN2sf5ShapeD2Ev, symObjAddr: 0x44D4, symBinAddr: 0x100006F3C, symSize: 0x68 }
  - { offset: 0x33812, size: 0x8, addend: 0x0, symName: __ZN2sf11VertexArrayD1Ev, symObjAddr: 0x453C, symBinAddr: 0x100006FA4, symSize: 0x2C }
  - { offset: 0x3383E, size: 0x8, addend: 0x0, symName: __ZN2sf11VertexArrayD2Ev, symObjAddr: 0x4568, symBinAddr: 0x100006FD0, symSize: 0x48 }
  - { offset: 0x3386A, size: 0x8, addend: 0x0, symName: __ZNSt3__16vectorIN2sf6VertexENS_9allocatorIS2_EEED1B8ne180100Ev, symObjAddr: 0x45B0, symBinAddr: 0x100007018, symSize: 0x2C }
  - { offset: 0x33894, size: 0x8, addend: 0x0, symName: __ZNSt3__16vectorIN2sf6VertexENS_9allocatorIS2_EEED2B8ne180100Ev, symObjAddr: 0x45DC, symBinAddr: 0x100007044, symSize: 0x44 }
  - { offset: 0x338BE, size: 0x8, addend: 0x0, symName: __ZNSt3__16vectorIN2sf6VertexENS_9allocatorIS2_EEE16__destroy_vectorC1B8ne180100ERS5_, symObjAddr: 0x4620, symBinAddr: 0x100007088, symSize: 0x34 }
  - { offset: 0x338F8, size: 0x8, addend: 0x0, symName: __ZNSt3__16vectorIN2sf6VertexENS_9allocatorIS2_EEE16__destroy_vectorclB8ne180100Ev, symObjAddr: 0x4654, symBinAddr: 0x1000070BC, symSize: 0x90 }
  - { offset: 0x3391E, size: 0x8, addend: 0x0, symName: __ZNSt3__16vectorIN2sf6VertexENS_9allocatorIS2_EEE16__destroy_vectorC2B8ne180100ERS5_, symObjAddr: 0x46E4, symBinAddr: 0x10000714C, symSize: 0x20 }
  - { offset: 0x33958, size: 0x8, addend: 0x0, symName: __ZNSt3__16vectorIN2sf6VertexENS_9allocatorIS2_EEE7__clearB8ne180100Ev, symObjAddr: 0x4704, symBinAddr: 0x10000716C, symSize: 0x28 }
  - { offset: 0x3397E, size: 0x8, addend: 0x0, symName: __ZNKSt3__16vectorIN2sf6VertexENS_9allocatorIS2_EEE17__annotate_deleteB8ne180100Ev, symObjAddr: 0x472C, symBinAddr: 0x100007194, symSize: 0x10 }
  - { offset: 0x339A4, size: 0x8, addend: 0x0, symName: __ZNSt3__116allocator_traitsINS_9allocatorIN2sf6VertexEEEE10deallocateB8ne180100ERS4_PS3_m, symObjAddr: 0x473C, symBinAddr: 0x1000071A4, symSize: 0x34 }
  - { offset: 0x339E9, size: 0x8, addend: 0x0, symName: __ZNSt3__16vectorIN2sf6VertexENS_9allocatorIS2_EEE7__allocB8ne180100Ev, symObjAddr: 0x4770, symBinAddr: 0x1000071D8, symSize: 0x28 }
  - { offset: 0x33A0F, size: 0x8, addend: 0x0, symName: __ZNKSt3__16vectorIN2sf6VertexENS_9allocatorIS2_EEE8capacityB8ne180100Ev, symObjAddr: 0x4798, symBinAddr: 0x100007200, symSize: 0x40 }
  - { offset: 0x33A35, size: 0x8, addend: 0x0, symName: __ZNSt3__16vectorIN2sf6VertexENS_9allocatorIS2_EEE22__base_destruct_at_endB8ne180100EPS2_, symObjAddr: 0x47D8, symBinAddr: 0x100007240, symSize: 0x8C }
  - { offset: 0x33A7B, size: 0x8, addend: 0x0, symName: __ZNSt3__116allocator_traitsINS_9allocatorIN2sf6VertexEEEE7destroyB8ne180100IS3_vEEvRS4_PT_, symObjAddr: 0x4864, symBinAddr: 0x1000072CC, symSize: 0x2C }
  - { offset: 0x33ABA, size: 0x8, addend: 0x0, symName: __ZNSt3__19allocatorIN2sf6VertexEE7destroyB8ne180100EPS2_, symObjAddr: 0x48A4, symBinAddr: 0x10000730C, symSize: 0x14 }
  - { offset: 0x33AEF, size: 0x8, addend: 0x0, symName: __ZNSt3__19allocatorIN2sf6VertexEE10deallocateB8ne180100EPS2_m, symObjAddr: 0x48B8, symBinAddr: 0x100007320, symSize: 0x44 }
  - { offset: 0x33B33, size: 0x8, addend: 0x0, symName: __ZNSt3__117__compressed_pairIPN2sf6VertexENS_9allocatorIS2_EEE6secondB8ne180100Ev, symObjAddr: 0x48FC, symBinAddr: 0x100007364, symSize: 0x24 }
  - { offset: 0x33B59, size: 0x8, addend: 0x0, symName: __ZNSt3__122__compressed_pair_elemINS_9allocatorIN2sf6VertexEEELi1ELb1EE5__getB8ne180100Ev, symObjAddr: 0x4920, symBinAddr: 0x100007388, symSize: 0x14 }
  - { offset: 0x33B7F, size: 0x8, addend: 0x0, symName: __ZNKSt3__16vectorIN2sf6VertexENS_9allocatorIS2_EEE9__end_capB8ne180100Ev, symObjAddr: 0x4934, symBinAddr: 0x10000739C, symSize: 0x28 }
  - { offset: 0x33BA5, size: 0x8, addend: 0x0, symName: __ZNKSt3__117__compressed_pairIPN2sf6VertexENS_9allocatorIS2_EEE5firstB8ne180100Ev, symObjAddr: 0x495C, symBinAddr: 0x1000073C4, symSize: 0x24 }
  - { offset: 0x33BCB, size: 0x8, addend: 0x0, symName: __ZNKSt3__122__compressed_pair_elemIPN2sf6VertexELi0ELb0EE5__getB8ne180100Ev, symObjAddr: 0x4980, symBinAddr: 0x1000073E8, symSize: 0x14 }
  - { offset: 0x33BF1, size: 0x8, addend: 0x0, symName: __ZNKSt3__123__optional_storage_baseIN2sf5EventELb0EE9has_valueB8ne180100Ev, symObjAddr: 0x4994, symBinAddr: 0x1000073FC, symSize: 0x1C }
  - { offset: 0x33C17, size: 0x8, addend: 0x0, symName: __ZNKRSt3__123__optional_storage_baseIN2sf5EventELb0EE5__getB8ne180100Ev, symObjAddr: 0x49B0, symBinAddr: 0x100007418, symSize: 0x14 }
  - { offset: 0x33C3D, size: 0x8, addend: 0x0, symName: __ZNKSt3__111__wrap_iterIPiE4baseB8ne180100Ev, symObjAddr: 0x4A0C, symBinAddr: 0x100007474, symSize: 0x18 }
  - { offset: 0x33C63, size: 0x8, addend: 0x0, symName: __ZNKSt3__111__wrap_iterIP6PlayerE4baseB8ne180100Ev, symObjAddr: 0x4A6C, symBinAddr: 0x1000074D4, symSize: 0x18 }
  - { offset: 0x33C89, size: 0x8, addend: 0x0, symName: __ZN9BoomerangD2Ev, symObjAddr: 0x4A84, symBinAddr: 0x1000074EC, symSize: 0x48 }
  - { offset: 0x33CB5, size: 0x8, addend: 0x0, symName: __ZNKSt3__111__wrap_iterIP9BoomerangE4baseB8ne180100Ev, symObjAddr: 0x4B14, symBinAddr: 0x10000757C, symSize: 0x18 }
  - { offset: 0x33CE5, size: 0x8, addend: 0x0, symName: __ZZNK2sf4RectIfE16findIntersectionERKS1_ENKUlffE_clEff, symObjAddr: 0x4B2C, symBinAddr: 0x100007594, symSize: 0x4C }
  - { offset: 0x33D37, size: 0x8, addend: 0x0, symName: __ZZNK2sf4RectIfE16findIntersectionERKS1_ENKUlffE0_clEff, symObjAddr: 0x4B78, symBinAddr: 0x1000075E0, symSize: 0x4C }
  - { offset: 0x33D7F, size: 0x8, addend: 0x0, symName: __ZN2sf4RectIfEC1ENS_7Vector2IfEES3_, symObjAddr: 0x4BC4, symBinAddr: 0x10000762C, symSize: 0x4C }
  - { offset: 0x33DCF, size: 0x8, addend: 0x0, symName: __ZNSt3__18optionalIN2sf4RectIfEEEC1B8ne180100IS3_Li0EEEOT_, symObjAddr: 0x4C10, symBinAddr: 0x100007678, symSize: 0x34 }
  - { offset: 0x33E18, size: 0x8, addend: 0x0, symName: __ZNSt3__18optionalIN2sf4RectIfEEEC1B8ne180100ENS_9nullopt_tE, symObjAddr: 0x4C44, symBinAddr: 0x1000076AC, symSize: 0x2C }
  - { offset: 0x33E4E, size: 0x8, addend: 0x0, symName: __ZN2sf4RectIfEC2ENS_7Vector2IfEES3_, symObjAddr: 0x4C70, symBinAddr: 0x1000076D8, symSize: 0x34 }
  - { offset: 0x33E98, size: 0x8, addend: 0x0, symName: __ZNSt3__18optionalIN2sf4RectIfEEEC2B8ne180100IS3_Li0EEEOT_, symObjAddr: 0x4CA4, symBinAddr: 0x10000770C, symSize: 0x34 }
  - { offset: 0x33EE6, size: 0x8, addend: 0x0, symName: __ZNSt3__127__optional_move_assign_baseIN2sf4RectIfEELb1EECI2NS_24__optional_destruct_baseIS3_Lb1EEEIJS3_EEENS_10in_place_tEDpOT_, symObjAddr: 0x4CD8, symBinAddr: 0x100007740, symSize: 0x34 }
  - { offset: 0x33F2A, size: 0x8, addend: 0x0, symName: __ZNSt3__127__optional_copy_assign_baseIN2sf4RectIfEELb1EECI2NS_24__optional_destruct_baseIS3_Lb1EEEIJS3_EEENS_10in_place_tEDpOT_, symObjAddr: 0x4D0C, symBinAddr: 0x100007774, symSize: 0x34 }
  - { offset: 0x33F6E, size: 0x8, addend: 0x0, symName: __ZNSt3__120__optional_move_baseIN2sf4RectIfEELb1EECI2NS_24__optional_destruct_baseIS3_Lb1EEEIJS3_EEENS_10in_place_tEDpOT_, symObjAddr: 0x4D40, symBinAddr: 0x1000077A8, symSize: 0x34 }
  - { offset: 0x33FB2, size: 0x8, addend: 0x0, symName: __ZNSt3__120__optional_copy_baseIN2sf4RectIfEELb1EECI2NS_24__optional_destruct_baseIS3_Lb1EEEIJS3_EEENS_10in_place_tEDpOT_, symObjAddr: 0x4D74, symBinAddr: 0x1000077DC, symSize: 0x34 }
  - { offset: 0x33FF1, size: 0x8, addend: 0x0, symName: __ZNSt3__123__optional_storage_baseIN2sf4RectIfEELb0EECI2NS_24__optional_destruct_baseIS3_Lb1EEEIJS3_EEENS_10in_place_tEDpOT_, symObjAddr: 0x4DA8, symBinAddr: 0x100007810, symSize: 0x34 }
  - { offset: 0x34030, size: 0x8, addend: 0x0, symName: __ZNSt3__124__optional_destruct_baseIN2sf4RectIfEELb1EEC2B8ne180100IJS3_EEENS_10in_place_tEDpOT_, symObjAddr: 0x4DDC, symBinAddr: 0x100007844, symSize: 0x2C }
  - { offset: 0x34081, size: 0x8, addend: 0x0, symName: __ZNSt3__18optionalIN2sf4RectIfEEEC2B8ne180100ENS_9nullopt_tE, symObjAddr: 0x4E08, symBinAddr: 0x100007870, symSize: 0x2C }
  - { offset: 0x340B7, size: 0x8, addend: 0x0, symName: __ZNSt3__127__optional_move_assign_baseIN2sf4RectIfEELb1EEC2Ev, symObjAddr: 0x4E34, symBinAddr: 0x10000789C, symSize: 0x2C }
  - { offset: 0x340E4, size: 0x8, addend: 0x0, symName: __ZNSt3__127__optional_copy_assign_baseIN2sf4RectIfEELb1EEC2Ev, symObjAddr: 0x4E60, symBinAddr: 0x1000078C8, symSize: 0x2C }
  - { offset: 0x34111, size: 0x8, addend: 0x0, symName: __ZNSt3__120__optional_move_baseIN2sf4RectIfEELb1EEC2Ev, symObjAddr: 0x4E8C, symBinAddr: 0x1000078F4, symSize: 0x2C }
  - { offset: 0x3413E, size: 0x8, addend: 0x0, symName: __ZNSt3__120__optional_copy_baseIN2sf4RectIfEELb1EEC2Ev, symObjAddr: 0x4EB8, symBinAddr: 0x100007920, symSize: 0x2C }
  - { offset: 0x3416B, size: 0x8, addend: 0x0, symName: __ZNSt3__123__optional_storage_baseIN2sf4RectIfEELb0EEC2Ev, symObjAddr: 0x4EE4, symBinAddr: 0x10000794C, symSize: 0x2C }
  - { offset: 0x34198, size: 0x8, addend: 0x0, symName: __ZNSt3__124__optional_destruct_baseIN2sf4RectIfEELb1EEC2B8ne180100Ev, symObjAddr: 0x4F10, symBinAddr: 0x100007978, symSize: 0x1C }
  - { offset: 0x341C2, size: 0x8, addend: 0x0, symName: __ZNKSt3__123__optional_storage_baseIN2sf4RectIfEELb0EE9has_valueB8ne180100Ev, symObjAddr: 0x4F2C, symBinAddr: 0x100007994, symSize: 0x1C }
  - { offset: 0x341E8, size: 0x8, addend: 0x0, symName: __ZNSt3__111__wrap_iterIPK9BoomerangEC2B8ne180100IPS1_Li0EEERKNS0_IT_EE, symObjAddr: 0x4F48, symBinAddr: 0x1000079B0, symSize: 0x3C }
  - { offset: 0x34230, size: 0x8, addend: 0x0, symName: __ZNKSt3__111__wrap_iterIPN2sf14RectangleShapeEE4baseB8ne180100Ev, symObjAddr: 0x4FCC, symBinAddr: 0x100007A34, symSize: 0x18 }
  - { offset: 0x34256, size: 0x8, addend: 0x0, symName: __ZN2sf12RenderWindowD2Ev, symObjAddr: 0x4FE4, symBinAddr: 0x100007A4C, symSize: 0x38 }
  - { offset: 0x34282, size: 0x8, addend: 0x0, symName: __ZThn72_N2sf12RenderWindowD1Ev, symObjAddr: 0x501C, symBinAddr: 0x100007A84, symSize: 0x1C }
  - { offset: 0x34298, size: 0x8, addend: 0x0, symName: __ZN2sf12RenderTargetD2Ev, symObjAddr: 0x5038, symBinAddr: 0x100007AA0, symSize: 0x14 }
  - { offset: 0x342C2, size: 0x8, addend: 0x0, symName: __ZNSt3__14__fs10filesystem4pathC2B8ne180100IA17_cvEERKT_NS2_6formatE, symObjAddr: 0x504C, symBinAddr: 0x100007AB4, symSize: 0x68 }
  - { offset: 0x34312, size: 0x8, addend: 0x0, symName: __ZNSt3__112basic_stringIcNS_11char_traitsIcEENS_9allocatorIcEEEC1B8ne180100Ev, symObjAddr: 0x50B4, symBinAddr: 0x100007B1C, symSize: 0x2C }
  - { offset: 0x34342, size: 0x8, addend: 0x0, symName: __ZNSt3__14__fs10filesystem8_PathCVTIcE15__append_sourceB8ne180100IA17_cEEvRNS_12basic_stringIcNS_11char_traitsIcEENS_9allocatorIcEEEERKT_, symObjAddr: 0x50E0, symBinAddr: 0x100007B48, symSize: 0x4C }
  - { offset: 0x34380, size: 0x8, addend: 0x0, symName: __ZNSt3__112basic_stringIcNS_11char_traitsIcEENS_9allocatorIcEEEC2B8ne180100Ev, symObjAddr: 0x512C, symBinAddr: 0x100007B94, symSize: 0x48 }
  - { offset: 0x343B6, size: 0x8, addend: 0x0, symName: __ZNSt3__117__compressed_pairINS_12basic_stringIcNS_11char_traitsIcEENS_9allocatorIcEEE5__repES5_EC1B8ne180100INS_16__value_init_tagENS_18__default_init_tagEEEOT_OT0_, symObjAddr: 0x5174, symBinAddr: 0x100007BDC, symSize: 0x3C }
  - { offset: 0x34410, size: 0x8, addend: 0x0, symName: __ZNKSt3__112basic_stringIcNS_11char_traitsIcEENS_9allocatorIcEEE14__annotate_newB8ne180100Em, symObjAddr: 0x51B0, symBinAddr: 0x100007C18, symSize: 0x14 }
  - { offset: 0x34446, size: 0x8, addend: 0x0, symName: __ZNSt3__117__compressed_pairINS_12basic_stringIcNS_11char_traitsIcEENS_9allocatorIcEEE5__repES5_EC2B8ne180100INS_16__value_init_tagENS_18__default_init_tagEEEOT_OT0_, symObjAddr: 0x51C4, symBinAddr: 0x100007C2C, symSize: 0x3C }
  - { offset: 0x344A0, size: 0x8, addend: 0x0, symName: __ZNSt3__122__compressed_pair_elemINS_12basic_stringIcNS_11char_traitsIcEENS_9allocatorIcEEE5__repELi0ELb0EEC2B8ne180100ENS_16__value_init_tagE, symObjAddr: 0x5200, symBinAddr: 0x100007C68, symSize: 0x20 }
  - { offset: 0x344D5, size: 0x8, addend: 0x0, symName: __ZNSt3__122__compressed_pair_elemINS_9allocatorIcEELi1ELb1EEC2B8ne180100ENS_18__default_init_tagE, symObjAddr: 0x5220, symBinAddr: 0x100007C88, symSize: 0x2C }
  - { offset: 0x3450A, size: 0x8, addend: 0x0, symName: __ZNSt3__19allocatorIcEC2B8ne180100Ev, symObjAddr: 0x524C, symBinAddr: 0x100007CB4, symSize: 0x2C }
  - { offset: 0x34534, size: 0x8, addend: 0x0, symName: __ZNSt3__116__non_trivial_ifILb1ENS_9allocatorIcEEEC2B8ne180100Ev, symObjAddr: 0x5278, symBinAddr: 0x100007CE0, symSize: 0x14 }
  - { offset: 0x3455E, size: 0x8, addend: 0x0, symName: __ZNSt3__14__fs10filesystem8_PathCVTIcE14__append_rangeB8ne180100IPKcLi0EEEvRNS_12basic_stringIcNS_11char_traitsIcEENS_9allocatorIcEEEET_SE_, symObjAddr: 0x528C, symBinAddr: 0x100007CF4, symSize: 0x34 }
  - { offset: 0x345B2, size: 0x8, addend: 0x0, symName: __ZNSt3__14__fs10filesystem24__is_pathable_char_arrayIA17_cPccLb1EE13__range_beginB8ne180100EPKc, symObjAddr: 0x52C0, symBinAddr: 0x100007D28, symSize: 0x14 }
  - { offset: 0x345D6, size: 0x8, addend: 0x0, symName: __ZNSt3__14__fs10filesystem24__is_pathable_char_arrayIA17_cPccLb1EE11__range_endB8ne180100EPKc, symObjAddr: 0x52D4, symBinAddr: 0x100007D3C, symSize: 0x50 }
  - { offset: 0x34623, size: 0x8, addend: 0x0, symName: __ZNSt3__112basic_stringIcNS_11char_traitsIcEENS_9allocatorIcEEE6appendB8ne180100IPKcLi0EEERS5_T_SA_, symObjAddr: 0x5324, symBinAddr: 0x100007D8C, symSize: 0x1F0 }
  - { offset: 0x346E0, size: 0x8, addend: 0x0, symName: __ZNKSt3__112basic_stringIcNS_11char_traitsIcEENS_9allocatorIcEEE8capacityB8ne180100Ev, symObjAddr: 0x5514, symBinAddr: 0x100007F7C, symSize: 0x54 }
  - { offset: 0x34706, size: 0x8, addend: 0x0, symName: __ZNKSt3__112basic_stringIcNS_11char_traitsIcEENS_9allocatorIcEEE15__addr_in_rangeB8ne180100IcEEbRKT_, symObjAddr: 0x5594, symBinAddr: 0x100007FFC, symSize: 0x6C }
  - { offset: 0x34745, size: 0x8, addend: 0x0, symName: __ZNSt3__112basic_stringIcNS_11char_traitsIcEENS_9allocatorIcEEE25__grow_by_without_replaceB8ne180100Emmmmmm, symObjAddr: 0x5600, symBinAddr: 0x100008068, symSize: 0x90 }
  - { offset: 0x347CD, size: 0x8, addend: 0x0, symName: __ZNKSt3__112basic_stringIcNS_11char_traitsIcEENS_9allocatorIcEEE19__annotate_increaseB8ne180100Em, symObjAddr: 0x5690, symBinAddr: 0x1000080F8, symSize: 0x14 }
  - { offset: 0x34803, size: 0x8, addend: 0x0, symName: __ZNSt3__112basic_stringIcNS_11char_traitsIcEENS_9allocatorIcEEE13__get_pointerB8ne180100Ev, symObjAddr: 0x56A4, symBinAddr: 0x10000810C, symSize: 0x54 }
  - { offset: 0x34829, size: 0x8, addend: 0x0, symName: __ZNSt3__111char_traitsIcE6assignB8ne180100ERcRKc, symObjAddr: 0x56F8, symBinAddr: 0x100008160, symSize: 0x24 }
  - { offset: 0x3485C, size: 0x8, addend: 0x0, symName: __ZNSt3__112basic_stringIcNS_11char_traitsIcEENS_9allocatorIcEEE10__set_sizeB8ne180100Em, symObjAddr: 0x571C, symBinAddr: 0x100008184, symSize: 0x54 }
  - { offset: 0x34892, size: 0x8, addend: 0x0, symName: __ZNSt3__112basic_stringIcNS_11char_traitsIcEENS_9allocatorIcEEE7__allocB8ne180100Ev, symObjAddr: 0x5770, symBinAddr: 0x1000081D8, symSize: 0x24 }
  - { offset: 0x348B8, size: 0x8, addend: 0x0, symName: __ZNSt3__112basic_stringIcNS_11char_traitsIcEENS_9allocatorIcEEEC1B8ne180100IPKcLi0EEET_S9_RKS4_, symObjAddr: 0x5794, symBinAddr: 0x1000081FC, symSize: 0x44 }
  - { offset: 0x34921, size: 0x8, addend: 0x0, symName: __ZNKSt3__112basic_stringIcNS_11char_traitsIcEENS_9allocatorIcEEE4dataB8ne180100Ev, symObjAddr: 0x57D8, symBinAddr: 0x100008240, symSize: 0x28 }
  - { offset: 0x34947, size: 0x8, addend: 0x0, symName: __ZNKSt3__112basic_stringIcNS_11char_traitsIcEENS_9allocatorIcEEE9__is_longB8ne180100Ev, symObjAddr: 0x5800, symBinAddr: 0x100008268, symSize: 0x38 }
  - { offset: 0x3496D, size: 0x8, addend: 0x0, symName: __ZNKSt3__112basic_stringIcNS_11char_traitsIcEENS_9allocatorIcEEE14__get_long_capB8ne180100Ev, symObjAddr: 0x5838, symBinAddr: 0x1000082A0, symSize: 0x30 }
  - { offset: 0x34993, size: 0x8, addend: 0x0, symName: __ZNKSt3__117__compressed_pairINS_12basic_stringIcNS_11char_traitsIcEENS_9allocatorIcEEE5__repES5_E5firstB8ne180100Ev, symObjAddr: 0x5868, symBinAddr: 0x1000082D0, symSize: 0x24 }
  - { offset: 0x349B9, size: 0x8, addend: 0x0, symName: __ZNKSt3__122__compressed_pair_elemINS_12basic_stringIcNS_11char_traitsIcEENS_9allocatorIcEEE5__repELi0ELb0EE5__getB8ne180100Ev, symObjAddr: 0x588C, symBinAddr: 0x1000082F4, symSize: 0x14 }
  - { offset: 0x349F4, size: 0x8, addend: 0x0, symName: __ZNKSt3__16__lessIvvEclB8ne180100IPKcS4_EEbRKT_RKT0_, symObjAddr: 0x5928, symBinAddr: 0x100008390, symSize: 0x34 }
  - { offset: 0x34A4A, size: 0x8, addend: 0x0, symName: __ZNSt3__112basic_stringIcNS_11char_traitsIcEENS_9allocatorIcEEE15__set_long_sizeB8ne180100Em, symObjAddr: 0x595C, symBinAddr: 0x1000083C4, symSize: 0x38 }
  - { offset: 0x34A80, size: 0x8, addend: 0x0, symName: __ZNSt3__117__compressed_pairINS_12basic_stringIcNS_11char_traitsIcEENS_9allocatorIcEEE5__repES5_E5firstB8ne180100Ev, symObjAddr: 0x5994, symBinAddr: 0x1000083FC, symSize: 0x24 }
  - { offset: 0x34AA6, size: 0x8, addend: 0x0, symName: __ZNSt3__122__compressed_pair_elemINS_12basic_stringIcNS_11char_traitsIcEENS_9allocatorIcEEE5__repELi0ELb0EE5__getB8ne180100Ev, symObjAddr: 0x59B8, symBinAddr: 0x100008420, symSize: 0x14 }
  - { offset: 0x34ACC, size: 0x8, addend: 0x0, symName: __ZNSt3__112basic_stringIcNS_11char_traitsIcEENS_9allocatorIcEEE18__get_long_pointerB8ne180100Ev, symObjAddr: 0x59CC, symBinAddr: 0x100008434, symSize: 0x28 }
  - { offset: 0x34AF2, size: 0x8, addend: 0x0, symName: __ZNSt3__112basic_stringIcNS_11char_traitsIcEENS_9allocatorIcEEE19__get_short_pointerB8ne180100Ev, symObjAddr: 0x59F4, symBinAddr: 0x10000845C, symSize: 0x28 }
  - { offset: 0x34B18, size: 0x8, addend: 0x0, symName: __ZNSt3__114pointer_traitsIPcE10pointer_toB8ne180100ERc, symObjAddr: 0x5A1C, symBinAddr: 0x100008484, symSize: 0x14 }
  - { offset: 0x34B3C, size: 0x8, addend: 0x0, symName: __ZNSt3__112basic_stringIcNS_11char_traitsIcEENS_9allocatorIcEEE16__set_short_sizeB8ne180100Em, symObjAddr: 0x5A30, symBinAddr: 0x100008498, symSize: 0x78 }
  - { offset: 0x34B72, size: 0x8, addend: 0x0, symName: __ZNSt3__117__compressed_pairINS_12basic_stringIcNS_11char_traitsIcEENS_9allocatorIcEEE5__repES5_E6secondB8ne180100Ev, symObjAddr: 0x5AA8, symBinAddr: 0x100008510, symSize: 0x24 }
  - { offset: 0x34B98, size: 0x8, addend: 0x0, symName: __ZNSt3__122__compressed_pair_elemINS_9allocatorIcEELi1ELb1EE5__getB8ne180100Ev, symObjAddr: 0x5ACC, symBinAddr: 0x100008534, symSize: 0x14 }
  - { offset: 0x34BBE, size: 0x8, addend: 0x0, symName: __ZNSt3__112basic_stringIcNS_11char_traitsIcEENS_9allocatorIcEEEC2B8ne180100IPKcLi0EEET_S9_RKS4_, symObjAddr: 0x5AE0, symBinAddr: 0x100008548, symSize: 0x50 }
  - { offset: 0x34C27, size: 0x8, addend: 0x0, symName: __ZNSt3__117__compressed_pairINS_12basic_stringIcNS_11char_traitsIcEENS_9allocatorIcEEE5__repES5_EC1B8ne180100INS_18__default_init_tagERKS5_EEOT_OT0_, symObjAddr: 0x5B30, symBinAddr: 0x100008598, symSize: 0x3C }
  - { offset: 0x34C81, size: 0x8, addend: 0x0, symName: __ZNSt3__112basic_stringIcNS_11char_traitsIcEENS_9allocatorIcEEE6__initIPKcLi0EEEvT_S9_, symObjAddr: 0x5B6C, symBinAddr: 0x1000085D4, symSize: 0x54 }
  - { offset: 0x34CE8, size: 0x8, addend: 0x0, symName: __ZNSt3__117__compressed_pairINS_12basic_stringIcNS_11char_traitsIcEENS_9allocatorIcEEE5__repES5_EC2B8ne180100INS_18__default_init_tagERKS5_EEOT_OT0_, symObjAddr: 0x5BC0, symBinAddr: 0x100008628, symSize: 0x40 }
  - { offset: 0x34D42, size: 0x8, addend: 0x0, symName: __ZNSt3__122__compressed_pair_elemINS_12basic_stringIcNS_11char_traitsIcEENS_9allocatorIcEEE5__repELi0ELb0EEC2B8ne180100ENS_18__default_init_tagE, symObjAddr: 0x5C00, symBinAddr: 0x100008668, symSize: 0x14 }
  - { offset: 0x34D77, size: 0x8, addend: 0x0, symName: __ZNSt3__122__compressed_pair_elemINS_9allocatorIcEELi1ELb1EEC2B8ne180100IRKS2_vEEOT_, symObjAddr: 0x5C14, symBinAddr: 0x10000867C, symSize: 0x18 }
  - { offset: 0x34DBA, size: 0x8, addend: 0x0, symName: __ZNSt3__112basic_stringIcNS_11char_traitsIcEENS_9allocatorIcEEE16__init_with_sizeB8ne180100IPKcS8_EEvT_T0_m, symObjAddr: 0x5C2C, symBinAddr: 0x100008694, symSize: 0x150 }
  - { offset: 0x34E53, size: 0x8, addend: 0x0, symName: __ZNKSt3__112basic_stringIcNS_11char_traitsIcEENS_9allocatorIcEEE8max_sizeB8ne180100Ev, symObjAddr: 0x5D7C, symBinAddr: 0x1000087E4, symSize: 0xAC }
  - { offset: 0x34EA8, size: 0x8, addend: 0x0, symName: __ZNKSt3__112basic_stringIcNS_11char_traitsIcEENS_9allocatorIcEEE20__throw_length_errorB8ne180100Ev, symObjAddr: 0x5E28, symBinAddr: 0x100008890, symSize: 0x1C }
  - { offset: 0x34ECE, size: 0x8, addend: 0x0, symName: __ZNSt3__112basic_stringIcNS_11char_traitsIcEENS_9allocatorIcEEE13__fits_in_ssoB8ne180100Em, symObjAddr: 0x5E44, symBinAddr: 0x1000088AC, symSize: 0x20 }
  - { offset: 0x34EF3, size: 0x8, addend: 0x0, symName: __ZNSt3__112basic_stringIcNS_11char_traitsIcEENS_9allocatorIcEEE11__recommendB8ne180100Em, symObjAddr: 0x5EA4, symBinAddr: 0x10000890C, symSize: 0x84 }
  - { offset: 0x34F28, size: 0x8, addend: 0x0, symName: __ZNSt3__112basic_stringIcNS_11char_traitsIcEENS_9allocatorIcEEE16__begin_lifetimeB8ne180100EPcm, symObjAddr: 0x5F28, symBinAddr: 0x100008990, symSize: 0x14 }
  - { offset: 0x34F5D, size: 0x8, addend: 0x0, symName: __ZNSt3__112basic_stringIcNS_11char_traitsIcEENS_9allocatorIcEEE18__set_long_pointerB8ne180100EPc, symObjAddr: 0x5F3C, symBinAddr: 0x1000089A4, symSize: 0x38 }
  - { offset: 0x34F93, size: 0x8, addend: 0x0, symName: __ZNSt3__112basic_stringIcNS_11char_traitsIcEENS_9allocatorIcEEE14__set_long_capB8ne180100Em, symObjAddr: 0x5F74, symBinAddr: 0x1000089DC, symSize: 0x70 }
  - { offset: 0x34FD4, size: 0x8, addend: 0x0, symName: __ZNSt3__116allocator_traitsINS_9allocatorIcEEE8max_sizeB8ne180100IS2_vEEmRKS2_, symObjAddr: 0x5FE4, symBinAddr: 0x100008A4C, symSize: 0x24 }
  - { offset: 0x35003, size: 0x8, addend: 0x0, symName: __ZNKSt3__112basic_stringIcNS_11char_traitsIcEENS_9allocatorIcEEE7__allocB8ne180100Ev, symObjAddr: 0x6008, symBinAddr: 0x100008A70, symSize: 0x24 }
  - { offset: 0x35029, size: 0x8, addend: 0x0, symName: __ZNSt3__114numeric_limitsImE3maxB8ne180100Ev, symObjAddr: 0x602C, symBinAddr: 0x100008A94, symSize: 0x14 }
  - { offset: 0x3503D, size: 0x8, addend: 0x0, symName: __ZNKSt3__19allocatorIcE8max_sizeB8ne180100Ev, symObjAddr: 0x6040, symBinAddr: 0x100008AA8, symSize: 0x14 }
  - { offset: 0x35063, size: 0x8, addend: 0x0, symName: __ZNKSt3__117__compressed_pairINS_12basic_stringIcNS_11char_traitsIcEENS_9allocatorIcEEE5__repES5_E6secondB8ne180100Ev, symObjAddr: 0x6054, symBinAddr: 0x100008ABC, symSize: 0x24 }
  - { offset: 0x35089, size: 0x8, addend: 0x0, symName: __ZNKSt3__122__compressed_pair_elemINS_9allocatorIcEELi1ELb1EE5__getB8ne180100Ev, symObjAddr: 0x6078, symBinAddr: 0x100008AE0, symSize: 0x14 }
  - { offset: 0x350AF, size: 0x8, addend: 0x0, symName: __ZNSt3__123__libcpp_numeric_limitsImLb1EE3maxB8ne180100Ev, symObjAddr: 0x608C, symBinAddr: 0x100008AF4, symSize: 0x8 }
  - { offset: 0x350C3, size: 0x8, addend: 0x0, symName: __ZNSt12length_errorC1B8ne180100EPKc, symObjAddr: 0x60F8, symBinAddr: 0x100008B60, symSize: 0x34 }
  - { offset: 0x350FC, size: 0x8, addend: 0x0, symName: __ZNSt12length_errorC2B8ne180100EPKc, symObjAddr: 0x612C, symBinAddr: 0x100008B94, symSize: 0x44 }
  - { offset: 0x35135, size: 0x8, addend: 0x0, symName: __ZNSt3__19allocatorIcE8allocateB8ne180100Em, symObjAddr: 0x6170, symBinAddr: 0x100008BD8, symSize: 0x58 }
  - { offset: 0x3516A, size: 0x8, addend: 0x0, symName: __ZNSt3__112basic_stringIcNS_11char_traitsIcEENS_9allocatorIcEEE10__align_itB8ne180100ILm8EEEmm, symObjAddr: 0x62AC, symBinAddr: 0x100008D14, symSize: 0x1C }
  - { offset: 0x35199, size: 0x8, addend: 0x0, symName: __ZNKSt3__112basic_stringIcNS_11char_traitsIcEENS_9allocatorIcEEE13__get_pointerB8ne180100Ev, symObjAddr: 0x62DC, symBinAddr: 0x100008D44, symSize: 0x54 }
  - { offset: 0x351BF, size: 0x8, addend: 0x0, symName: __ZNKSt3__112basic_stringIcNS_11char_traitsIcEENS_9allocatorIcEEE18__get_long_pointerB8ne180100Ev, symObjAddr: 0x6330, symBinAddr: 0x100008D98, symSize: 0x28 }
  - { offset: 0x351E5, size: 0x8, addend: 0x0, symName: __ZNKSt3__112basic_stringIcNS_11char_traitsIcEENS_9allocatorIcEEE19__get_short_pointerB8ne180100Ev, symObjAddr: 0x6358, symBinAddr: 0x100008DC0, symSize: 0x28 }
  - { offset: 0x3520B, size: 0x8, addend: 0x0, symName: __ZNSt3__114pointer_traitsIPKcE10pointer_toB8ne180100ERS1_, symObjAddr: 0x6380, symBinAddr: 0x100008DE8, symSize: 0x14 }
  - { offset: 0x3522F, size: 0x8, addend: 0x0, symName: __ZNSt3__111char_traitsIcE6lengthB8ne180100EPKc, symObjAddr: 0x6580, symBinAddr: 0x100008FE8, symSize: 0x34 }
  - { offset: 0x35274, size: 0x8, addend: 0x0, symName: __ZNKSt3__113basic_ostreamIcNS_11char_traitsIcEEE6sentrycvbB8ne180100Ev, symObjAddr: 0x65B4, symBinAddr: 0x10000901C, symSize: 0x1C }
  - { offset: 0x3529A, size: 0x8, addend: 0x0, symName: __ZNSt3__119ostreambuf_iteratorIcNS_11char_traitsIcEEEC1B8ne180100ERNS_13basic_ostreamIcS2_EE, symObjAddr: 0x6810, symBinAddr: 0x100009278, symSize: 0x34 }
  - { offset: 0x352D3, size: 0x8, addend: 0x0, symName: __ZNKSt3__18ios_base5flagsB8ne180100Ev, symObjAddr: 0x6844, symBinAddr: 0x1000092AC, symSize: 0x18 }
  - { offset: 0x352FB, size: 0x8, addend: 0x0, symName: __ZNKSt3__19basic_iosIcNS_11char_traitsIcEEE4fillB8ne180100Ev, symObjAddr: 0x685C, symBinAddr: 0x1000092C4, symSize: 0x64 }
  - { offset: 0x35323, size: 0x8, addend: 0x0, symName: __ZNKSt3__119ostreambuf_iteratorIcNS_11char_traitsIcEEE6failedB8ne180100Ev, symObjAddr: 0x68C0, symBinAddr: 0x100009328, symSize: 0x24 }
  - { offset: 0x35349, size: 0x8, addend: 0x0, symName: __ZNSt3__19basic_iosIcNS_11char_traitsIcEEE8setstateB8ne180100Ej, symObjAddr: 0x68E4, symBinAddr: 0x10000934C, symSize: 0x2C }
  - { offset: 0x3537F, size: 0x8, addend: 0x0, symName: __ZNKSt3__18ios_base5widthB8ne180100Ev, symObjAddr: 0x6910, symBinAddr: 0x100009378, symSize: 0x18 }
  - { offset: 0x353A7, size: 0x8, addend: 0x0, symName: __ZNSt3__115basic_streambufIcNS_11char_traitsIcEEE5sputnB8ne180100EPKcl, symObjAddr: 0x6928, symBinAddr: 0x100009390, symSize: 0x3C }
  - { offset: 0x353EB, size: 0x8, addend: 0x0, symName: __ZNSt3__112basic_stringIcNS_11char_traitsIcEENS_9allocatorIcEEEC1B8ne180100Emc, symObjAddr: 0x6964, symBinAddr: 0x1000093CC, symSize: 0x3C }
  - { offset: 0x35435, size: 0x8, addend: 0x0, symName: __ZNSt3__112basic_stringIcNS_11char_traitsIcEENS_9allocatorIcEEE4dataB8ne180100Ev, symObjAddr: 0x69A0, symBinAddr: 0x100009408, symSize: 0x28 }
  - { offset: 0x3545B, size: 0x8, addend: 0x0, symName: __ZNSt3__18ios_base5widthB8ne180100El, symObjAddr: 0x69C8, symBinAddr: 0x100009430, symSize: 0x2C }
  - { offset: 0x354A3, size: 0x8, addend: 0x0, symName: __ZNSt3__112basic_stringIcNS_11char_traitsIcEENS_9allocatorIcEEEC2B8ne180100Emc, symObjAddr: 0x69F4, symBinAddr: 0x10000945C, symSize: 0x4C }
  - { offset: 0x354ED, size: 0x8, addend: 0x0, symName: __ZNSt3__117__compressed_pairINS_12basic_stringIcNS_11char_traitsIcEENS_9allocatorIcEEE5__repES5_EC1B8ne180100INS_18__default_init_tagESA_EEOT_OT0_, symObjAddr: 0x6A40, symBinAddr: 0x1000094A8, symSize: 0x3C }
  - { offset: 0x35547, size: 0x8, addend: 0x0, symName: __ZNSt3__117__compressed_pairINS_12basic_stringIcNS_11char_traitsIcEENS_9allocatorIcEEE5__repES5_EC2B8ne180100INS_18__default_init_tagESA_EEOT_OT0_, symObjAddr: 0x6A7C, symBinAddr: 0x1000094E4, symSize: 0x3C }
  - { offset: 0x355A1, size: 0x8, addend: 0x0, symName: __ZNSt3__119ostreambuf_iteratorIcNS_11char_traitsIcEEEC2B8ne180100ERNS_13basic_ostreamIcS2_EE, symObjAddr: 0x6ACC, symBinAddr: 0x100009534, symSize: 0x54 }
  - { offset: 0x355DA, size: 0x8, addend: 0x0, symName: __ZNKSt3__19basic_iosIcNS_11char_traitsIcEEE5rdbufB8ne180100Ev, symObjAddr: 0x6B20, symBinAddr: 0x100009588, symSize: 0x24 }
  - { offset: 0x35602, size: 0x8, addend: 0x0, symName: __ZNKSt3__18ios_base5rdbufB8ne180100Ev, symObjAddr: 0x6B44, symBinAddr: 0x1000095AC, symSize: 0x18 }
  - { offset: 0x35628, size: 0x8, addend: 0x0, symName: __ZNSt3__111char_traitsIcE11eq_int_typeB8ne180100Eii, symObjAddr: 0x6B5C, symBinAddr: 0x1000095C4, symSize: 0x28 }
  - { offset: 0x3565D, size: 0x8, addend: 0x0, symName: __ZNSt3__111char_traitsIcE3eofB8ne180100Ev, symObjAddr: 0x6B84, symBinAddr: 0x1000095EC, symSize: 0x8 }
  - { offset: 0x35671, size: 0x8, addend: 0x0, symName: __ZNKSt3__19basic_iosIcNS_11char_traitsIcEEE5widenB8ne180100Ec, symObjAddr: 0x6B8C, symBinAddr: 0x1000095F4, symSize: 0x84 }
  - { offset: 0x356E6, size: 0x8, addend: 0x0, symName: __ZNKSt3__15ctypeIcE5widenB8ne180100Ec, symObjAddr: 0x6C3C, symBinAddr: 0x1000096A4, symSize: 0x38 }
  - { offset: 0x3571C, size: 0x8, addend: 0x0, symName: __ZNSt3__18ios_base8setstateB8ne180100Ej, symObjAddr: 0x6C74, symBinAddr: 0x1000096DC, symSize: 0x34 }
  - { offset: 0x35754, size: 0x8, addend: 0x0, symName: __ZNSt3__14__fs10filesystem4pathC2B8ne180100IA22_cvEERKT_NS2_6formatE, symObjAddr: 0x6CCC, symBinAddr: 0x100009734, symSize: 0x68 }
  - { offset: 0x357A4, size: 0x8, addend: 0x0, symName: __ZNSt3__14__fs10filesystem8_PathCVTIcE15__append_sourceB8ne180100IA22_cEEvRNS_12basic_stringIcNS_11char_traitsIcEENS_9allocatorIcEEEERKT_, symObjAddr: 0x6D34, symBinAddr: 0x10000979C, symSize: 0x4C }
  - { offset: 0x357E2, size: 0x8, addend: 0x0, symName: __ZNSt3__14__fs10filesystem24__is_pathable_char_arrayIA22_cPccLb1EE13__range_beginB8ne180100EPKc, symObjAddr: 0x6D80, symBinAddr: 0x1000097E8, symSize: 0x14 }
  - { offset: 0x35806, size: 0x8, addend: 0x0, symName: __ZNSt3__14__fs10filesystem24__is_pathable_char_arrayIA22_cPccLb1EE11__range_endB8ne180100EPKc, symObjAddr: 0x6D94, symBinAddr: 0x1000097FC, symSize: 0x50 }
  - { offset: 0x35853, size: 0x8, addend: 0x0, symName: __ZNSt3__19allocatorIN2sf7TextureEEC1B8ne180100Ev, symObjAddr: 0x6E74, symBinAddr: 0x1000098DC, symSize: 0x2C }
  - { offset: 0x358CE, size: 0x8, addend: 0x0, symName: __ZNSt3__118__allocation_guardINS_9allocatorINS_20__shared_ptr_emplaceIN2sf7TextureENS1_IS4_EEEEEEEC1B8ne180100IS5_EET_m, symObjAddr: 0x6EA0, symBinAddr: 0x100009908, symSize: 0x34 }
  - { offset: 0x3591F, size: 0x8, addend: 0x0, symName: __ZNKSt3__118__allocation_guardINS_9allocatorINS_20__shared_ptr_emplaceIN2sf7TextureENS1_IS4_EEEEEEE5__getB8ne180100Ev, symObjAddr: 0x6ED4, symBinAddr: 0x10000993C, symSize: 0x18 }
  - { offset: 0x35945, size: 0x8, addend: 0x0, symName: __ZNSt3__120__shared_ptr_emplaceIN2sf7TextureENS_9allocatorIS2_EEEC1B8ne180100IJES4_Li0EEES4_DpOT_, symObjAddr: 0x6EEC, symBinAddr: 0x100009954, symSize: 0x2C }
  - { offset: 0x35993, size: 0x8, addend: 0x0, symName: __ZNSt3__118__allocation_guardINS_9allocatorINS_20__shared_ptr_emplaceIN2sf7TextureENS1_IS4_EEEEEEE13__release_ptrB8ne180100Ev, symObjAddr: 0x6F18, symBinAddr: 0x100009980, symSize: 0x24 }
  - { offset: 0x359C8, size: 0x8, addend: 0x0, symName: __ZNSt3__110shared_ptrIN2sf7TextureEE27__create_with_control_blockB8ne180100IS2_NS_20__shared_ptr_emplaceIS2_NS_9allocatorIS2_EEEEEES3_PT_PT0_, symObjAddr: 0x6F3C, symBinAddr: 0x1000099A4, symSize: 0xA4 }
  - { offset: 0x35A20, size: 0x8, addend: 0x0, symName: __ZNSt3__120__shared_ptr_emplaceIN2sf7TextureENS_9allocatorIS2_EEE10__get_elemB8ne180100Ev, symObjAddr: 0x6FE0, symBinAddr: 0x100009A48, symSize: 0x28 }
  - { offset: 0x35A46, size: 0x8, addend: 0x0, symName: __ZNSt3__118__allocation_guardINS_9allocatorINS_20__shared_ptr_emplaceIN2sf7TextureENS1_IS4_EEEEEEED1B8ne180100Ev, symObjAddr: 0x7008, symBinAddr: 0x100009A70, symSize: 0x2C }
  - { offset: 0x35A70, size: 0x8, addend: 0x0, symName: __ZNSt3__118__allocation_guardINS_9allocatorINS_20__shared_ptr_emplaceIN2sf7TextureENS1_IS4_EEEEEEEC2B8ne180100IS5_EET_m, symObjAddr: 0x7034, symBinAddr: 0x100009A9C, symSize: 0x50 }
  - { offset: 0x35AC1, size: 0x8, addend: 0x0, symName: __ZNSt3__19allocatorINS_20__shared_ptr_emplaceIN2sf7TextureENS0_IS3_EEEEEC1B8ne180100IS3_EERKNS0_IT_EE, symObjAddr: 0x7084, symBinAddr: 0x100009AEC, symSize: 0x34 }
  - { offset: 0x35AFF, size: 0x8, addend: 0x0, symName: __ZNSt3__116allocator_traitsINS_9allocatorINS_20__shared_ptr_emplaceIN2sf7TextureENS1_IS4_EEEEEEE8allocateB8ne180100ERS7_m, symObjAddr: 0x70B8, symBinAddr: 0x100009B20, symSize: 0x2C }
  - { offset: 0x35B34, size: 0x8, addend: 0x0, symName: __ZNSt3__19allocatorINS_20__shared_ptr_emplaceIN2sf7TextureENS0_IS3_EEEEEC2B8ne180100IS3_EERKNS0_IT_EE, symObjAddr: 0x70E4, symBinAddr: 0x100009B4C, symSize: 0x30 }
  - { offset: 0x35B72, size: 0x8, addend: 0x0, symName: __ZNSt3__116__non_trivial_ifILb1ENS_9allocatorINS_20__shared_ptr_emplaceIN2sf7TextureENS1_IS4_EEEEEEEC2B8ne180100Ev, symObjAddr: 0x7114, symBinAddr: 0x100009B7C, symSize: 0x14 }
  - { offset: 0x35B9C, size: 0x8, addend: 0x0, symName: __ZNSt3__19allocatorINS_20__shared_ptr_emplaceIN2sf7TextureENS0_IS3_EEEEE8allocateB8ne180100Em, symObjAddr: 0x7128, symBinAddr: 0x100009B90, symSize: 0x5C }
  - { offset: 0x35BDC, size: 0x8, addend: 0x0, symName: __ZNSt3__116allocator_traitsINS_9allocatorINS_20__shared_ptr_emplaceIN2sf7TextureENS1_IS4_EEEEEEE8max_sizeB8ne180100IS7_vEEmRKS7_, symObjAddr: 0x7184, symBinAddr: 0x100009BEC, symSize: 0x24 }
  - { offset: 0x35C0B, size: 0x8, addend: 0x0, symName: __ZNKSt3__19allocatorINS_20__shared_ptr_emplaceIN2sf7TextureENS0_IS3_EEEEE8max_sizeB8ne180100Ev, symObjAddr: 0x71A8, symBinAddr: 0x100009C10, symSize: 0x18 }
  - { offset: 0x35C31, size: 0x8, addend: 0x0, symName: __ZNSt3__120__shared_ptr_emplaceIN2sf7TextureENS_9allocatorIS2_EEEC2B8ne180100IJES4_Li0EEES4_DpOT_, symObjAddr: 0x71C0, symBinAddr: 0x100009C28, symSize: 0xB4 }
  - { offset: 0x35CA2, size: 0x8, addend: 0x0, symName: __ZNSt3__119__shared_weak_countC2B8ne180100El, symObjAddr: 0x7274, symBinAddr: 0x100009CDC, symSize: 0x4C }
  - { offset: 0x35CDB, size: 0x8, addend: 0x0, symName: __ZNSt3__120__shared_ptr_emplaceIN2sf7TextureENS_9allocatorIS2_EEE8_StorageC1B8ne180100EOS4_, symObjAddr: 0x72C0, symBinAddr: 0x100009D28, symSize: 0x34 }
  - { offset: 0x35D15, size: 0x8, addend: 0x0, symName: __ZNSt3__120__shared_ptr_emplaceIN2sf7TextureENS_9allocatorIS2_EEE11__get_allocB8ne180100Ev, symObjAddr: 0x72F4, symBinAddr: 0x100009D5C, symSize: 0x28 }
  - { offset: 0x35D41, size: 0x8, addend: 0x0, symName: __ZNSt3__116allocator_traitsINS_9allocatorIN2sf7TextureEEEE9constructB8ne180100IS3_JEvEEvRS4_PT_DpOT0_, symObjAddr: 0x731C, symBinAddr: 0x100009D84, symSize: 0x2C }
  - { offset: 0x35D85, size: 0x8, addend: 0x0, symName: __ZNSt3__120__shared_ptr_emplaceIN2sf7TextureENS_9allocatorIS2_EEE8_StorageD1B8ne180100Ev, symObjAddr: 0x7348, symBinAddr: 0x100009DB0, symSize: 0x2C }
  - { offset: 0x35DAF, size: 0x8, addend: 0x0, symName: __ZNSt3__120__shared_ptr_emplaceIN2sf7TextureENS_9allocatorIS2_EEED1Ev, symObjAddr: 0x7374, symBinAddr: 0x100009DDC, symSize: 0x2C }
  - { offset: 0x35DDB, size: 0x8, addend: 0x0, symName: __ZNSt3__120__shared_ptr_emplaceIN2sf7TextureENS_9allocatorIS2_EEED0Ev, symObjAddr: 0x73A0, symBinAddr: 0x100009E08, symSize: 0x30 }
  - { offset: 0x35E07, size: 0x8, addend: 0x0, symName: __ZNSt3__120__shared_ptr_emplaceIN2sf7TextureENS_9allocatorIS2_EEE16__on_zero_sharedEv, symObjAddr: 0x73D0, symBinAddr: 0x100009E38, symSize: 0x24 }
  - { offset: 0x35E2D, size: 0x8, addend: 0x0, symName: __ZNSt3__120__shared_ptr_emplaceIN2sf7TextureENS_9allocatorIS2_EEE21__on_zero_shared_weakEv, symObjAddr: 0x73F4, symBinAddr: 0x100009E5C, symSize: 0x5C }
  - { offset: 0x35E6F, size: 0x8, addend: 0x0, symName: __ZNSt3__114__shared_countC2B8ne180100El, symObjAddr: 0x7450, symBinAddr: 0x100009EB8, symSize: 0x30 }
  - { offset: 0x35EA8, size: 0x8, addend: 0x0, symName: __ZNSt3__120__shared_ptr_emplaceIN2sf7TextureENS_9allocatorIS2_EEE8_StorageC2B8ne180100EOS4_, symObjAddr: 0x7480, symBinAddr: 0x100009EE8, symSize: 0x30 }
  - { offset: 0x35EE2, size: 0x8, addend: 0x0, symName: __ZNSt3__120__shared_ptr_emplaceIN2sf7TextureENS_9allocatorIS2_EEE8_Storage11__get_allocB8ne180100Ev, symObjAddr: 0x74B0, symBinAddr: 0x100009F18, symSize: 0x3C }
  - { offset: 0x35F38, size: 0x8, addend: 0x0, symName: __ZNSt3__117__compressed_pairINS_9allocatorIN2sf7TextureEEES3_E16__get_first_baseB8ne180100EPS5_, symObjAddr: 0x74EC, symBinAddr: 0x100009F54, symSize: 0x14 }
  - { offset: 0x35F5C, size: 0x8, addend: 0x0, symName: __ZNSt3__19allocatorIN2sf7TextureEE9constructB8ne180100IS2_JEEEvPT_DpOT0_, symObjAddr: 0x7500, symBinAddr: 0x100009F68, symSize: 0x28 }
  - { offset: 0x35F9F, size: 0x8, addend: 0x0, symName: __ZNSt3__120__shared_ptr_emplaceIN2sf7TextureENS_9allocatorIS2_EEE8_StorageD2B8ne180100Ev, symObjAddr: 0x7528, symBinAddr: 0x100009F90, symSize: 0x2C }
  - { offset: 0x35FC9, size: 0x8, addend: 0x0, symName: __ZNSt3__120__shared_ptr_emplaceIN2sf7TextureENS_9allocatorIS2_EEED2Ev, symObjAddr: 0x7554, symBinAddr: 0x100009FBC, symSize: 0x48 }
  - { offset: 0x35FF5, size: 0x8, addend: 0x0, symName: __ZNSt3__120__shared_ptr_emplaceIN2sf7TextureENS_9allocatorIS2_EEE21__on_zero_shared_implB8ne180100IS4_Li0EEEvv, symObjAddr: 0x759C, symBinAddr: 0x10000A004, symSize: 0x44 }
  - { offset: 0x36046, size: 0x8, addend: 0x0, symName: __ZNSt3__116allocator_traitsINS_9allocatorIN2sf7TextureEEEE7destroyB8ne180100IS3_vEEvRS4_PT_, symObjAddr: 0x75E0, symBinAddr: 0x10000A048, symSize: 0x2C }
  - { offset: 0x36085, size: 0x8, addend: 0x0, symName: __ZNSt3__19allocatorIN2sf7TextureEE7destroyB8ne180100EPS2_, symObjAddr: 0x760C, symBinAddr: 0x10000A074, symSize: 0x28 }
  - { offset: 0x360BA, size: 0x8, addend: 0x0, symName: __ZNSt3__116allocator_traitsINS_9allocatorINS_20__shared_ptr_emplaceIN2sf7TextureENS1_IS4_EEEEEEE10deallocateB8ne180100ERS7_PS6_m, symObjAddr: 0x7634, symBinAddr: 0x10000A09C, symSize: 0x34 }
  - { offset: 0x360FF, size: 0x8, addend: 0x0, symName: __ZNSt3__114pointer_traitsIPNS_20__shared_ptr_emplaceIN2sf7TextureENS_9allocatorIS3_EEEEE10pointer_toB8ne180100ERS6_, symObjAddr: 0x7668, symBinAddr: 0x10000A0D0, symSize: 0x14 }
  - { offset: 0x36123, size: 0x8, addend: 0x0, symName: __ZNSt3__19allocatorINS_20__shared_ptr_emplaceIN2sf7TextureENS0_IS3_EEEEE10deallocateB8ne180100EPS5_m, symObjAddr: 0x767C, symBinAddr: 0x10000A0E4, symSize: 0x44 }
  - { offset: 0x36167, size: 0x8, addend: 0x0, symName: __ZNSt3__110shared_ptrIN2sf7TextureEEC1B8ne180100Ev, symObjAddr: 0x76C0, symBinAddr: 0x10000A128, symSize: 0x2C }
  - { offset: 0x36191, size: 0x8, addend: 0x0, symName: __ZNSt3__110shared_ptrIN2sf7TextureEE18__enable_weak_thisB8ne180100Ez, symObjAddr: 0x76EC, symBinAddr: 0x10000A154, symSize: 0x10 }
  - { offset: 0x361B8, size: 0x8, addend: 0x0, symName: __ZNSt3__110shared_ptrIN2sf7TextureEEC2B8ne180100Ev, symObjAddr: 0x76FC, symBinAddr: 0x10000A164, symSize: 0x1C }
  - { offset: 0x361E2, size: 0x8, addend: 0x0, symName: __ZNSt3__120__shared_ptr_emplaceIN2sf7TextureENS_9allocatorIS2_EEE8_Storage10__get_elemB8ne180100Ev, symObjAddr: 0x7718, symBinAddr: 0x10000A180, symSize: 0x3C }
  - { offset: 0x36238, size: 0x8, addend: 0x0, symName: __ZNSt3__117__compressed_pairINS_9allocatorIN2sf7TextureEEES3_E17__get_second_baseB8ne180100EPS5_, symObjAddr: 0x7754, symBinAddr: 0x10000A1BC, symSize: 0x14 }
  - { offset: 0x3625C, size: 0x8, addend: 0x0, symName: __ZNSt3__118__allocation_guardINS_9allocatorINS_20__shared_ptr_emplaceIN2sf7TextureENS1_IS4_EEEEEEED2B8ne180100Ev, symObjAddr: 0x7768, symBinAddr: 0x10000A1D0, symSize: 0x2C }
  - { offset: 0x36286, size: 0x8, addend: 0x0, symName: __ZNSt3__118__allocation_guardINS_9allocatorINS_20__shared_ptr_emplaceIN2sf7TextureENS1_IS4_EEEEEEE9__destroyB8ne180100Ev, symObjAddr: 0x7794, symBinAddr: 0x10000A1FC, symSize: 0x4C }
  - { offset: 0x362AC, size: 0x8, addend: 0x0, symName: __ZNSt3__19allocatorIN2sf7TextureEEC2B8ne180100Ev, symObjAddr: 0x77E0, symBinAddr: 0x10000A248, symSize: 0x2C }
  - { offset: 0x362D6, size: 0x8, addend: 0x0, symName: __ZNSt3__116__non_trivial_ifILb1ENS_9allocatorIN2sf7TextureEEEEC2B8ne180100Ev, symObjAddr: 0x780C, symBinAddr: 0x10000A274, symSize: 0x14 }
  - { offset: 0x36300, size: 0x8, addend: 0x0, symName: __ZNSt3__110shared_ptrIN2sf7TextureEED2B8ne180100Ev, symObjAddr: 0x7820, symBinAddr: 0x10000A288, symSize: 0x54 }
  - { offset: 0x3632A, size: 0x8, addend: 0x0, symName: __ZNSt3__119__shared_weak_count16__release_sharedB8ne180100Ev, symObjAddr: 0x7874, symBinAddr: 0x10000A2DC, symSize: 0x3C }
  - { offset: 0x36350, size: 0x8, addend: 0x0, symName: __ZNSt3__114__shared_count16__release_sharedB8ne180100Ev, symObjAddr: 0x78B0, symBinAddr: 0x10000A318, symSize: 0x7C }
  - { offset: 0x36376, size: 0x8, addend: 0x0, symName: __ZNSt3__14__fs10filesystem4pathC2B8ne180100IA19_cvEERKT_NS2_6formatE, symObjAddr: 0x795C, symBinAddr: 0x10000A3C4, symSize: 0x68 }
  - { offset: 0x363C6, size: 0x8, addend: 0x0, symName: __ZNSt3__14__fs10filesystem8_PathCVTIcE15__append_sourceB8ne180100IA19_cEEvRNS_12basic_stringIcNS_11char_traitsIcEENS_9allocatorIcEEEERKT_, symObjAddr: 0x79C4, symBinAddr: 0x10000A42C, symSize: 0x4C }
  - { offset: 0x36404, size: 0x8, addend: 0x0, symName: __ZNSt3__14__fs10filesystem24__is_pathable_char_arrayIA19_cPccLb1EE13__range_beginB8ne180100EPKc, symObjAddr: 0x7A10, symBinAddr: 0x10000A478, symSize: 0x14 }
  - { offset: 0x36428, size: 0x8, addend: 0x0, symName: __ZNSt3__14__fs10filesystem24__is_pathable_char_arrayIA19_cPccLb1EE11__range_endB8ne180100EPKc, symObjAddr: 0x7A24, symBinAddr: 0x10000A48C, symSize: 0x50 }
  - { offset: 0x36475, size: 0x8, addend: 0x0, symName: __ZNSt3__16vectorINS_10shared_ptrIN2sf7TextureEEENS_9allocatorIS4_EEEC2Em, symObjAddr: 0x7A74, symBinAddr: 0x10000A4DC, symSize: 0xD4 }
  - { offset: 0x364CE, size: 0x8, addend: 0x0, symName: __ZNSt3__117__compressed_pairIPNS_10shared_ptrIN2sf7TextureEEENS_9allocatorIS4_EEEC1B8ne180100IDnNS_18__default_init_tagEEEOT_OT0_, symObjAddr: 0x7B48, symBinAddr: 0x10000A5B0, symSize: 0x3C }
  - { offset: 0x36528, size: 0x8, addend: 0x0, symName: __ZNSt3__16vectorINS_10shared_ptrIN2sf7TextureEEENS_9allocatorIS4_EEE16__destroy_vectorC1B8ne180100ERS7_, symObjAddr: 0x7BC4, symBinAddr: 0x10000A62C, symSize: 0x34 }
  - { offset: 0x36562, size: 0x8, addend: 0x0, symName: __ZNSt3__16vectorINS_10shared_ptrIN2sf7TextureEEENS_9allocatorIS4_EEE11__vallocateB8ne180100Em, symObjAddr: 0x7BF8, symBinAddr: 0x10000A660, symSize: 0xAC }
  - { offset: 0x365A8, size: 0x8, addend: 0x0, symName: __ZNSt3__16vectorINS_10shared_ptrIN2sf7TextureEEENS_9allocatorIS4_EEE18__construct_at_endEm, symObjAddr: 0x7CA4, symBinAddr: 0x10000A70C, symSize: 0xC8 }
  - { offset: 0x3661F, size: 0x8, addend: 0x0, symName: __ZNSt3__128__exception_guard_exceptionsINS_6vectorINS_10shared_ptrIN2sf7TextureEEENS_9allocatorIS5_EEE16__destroy_vectorEE10__completeB8ne180100Ev, symObjAddr: 0x7D6C, symBinAddr: 0x10000A7D4, symSize: 0x1C }
  - { offset: 0x36645, size: 0x8, addend: 0x0, symName: __ZNSt3__128__exception_guard_exceptionsINS_6vectorINS_10shared_ptrIN2sf7TextureEEENS_9allocatorIS5_EEE16__destroy_vectorEED1B8ne180100Ev, symObjAddr: 0x7D88, symBinAddr: 0x10000A7F0, symSize: 0x2C }
  - { offset: 0x3666F, size: 0x8, addend: 0x0, symName: __ZNSt3__117__compressed_pairIPNS_10shared_ptrIN2sf7TextureEEENS_9allocatorIS4_EEEC2B8ne180100IDnNS_18__default_init_tagEEEOT_OT0_, symObjAddr: 0x7DB4, symBinAddr: 0x10000A81C, symSize: 0x40 }
  - { offset: 0x366C9, size: 0x8, addend: 0x0, symName: __ZNSt3__122__compressed_pair_elemIPNS_10shared_ptrIN2sf7TextureEEELi0ELb0EEC2B8ne180100IDnvEEOT_, symObjAddr: 0x7DF4, symBinAddr: 0x10000A85C, symSize: 0x1C }
  - { offset: 0x3670C, size: 0x8, addend: 0x0, symName: __ZNSt3__122__compressed_pair_elemINS_9allocatorINS_10shared_ptrIN2sf7TextureEEEEELi1ELb1EEC2B8ne180100ENS_18__default_init_tagE, symObjAddr: 0x7E10, symBinAddr: 0x10000A878, symSize: 0x2C }
  - { offset: 0x36741, size: 0x8, addend: 0x0, symName: __ZNSt3__19allocatorINS_10shared_ptrIN2sf7TextureEEEEC2B8ne180100Ev, symObjAddr: 0x7E3C, symBinAddr: 0x10000A8A4, symSize: 0x2C }
  - { offset: 0x3676B, size: 0x8, addend: 0x0, symName: __ZNSt3__116__non_trivial_ifILb1ENS_9allocatorINS_10shared_ptrIN2sf7TextureEEEEEEC2B8ne180100Ev, symObjAddr: 0x7E68, symBinAddr: 0x10000A8D0, symSize: 0x14 }
  - { offset: 0x36795, size: 0x8, addend: 0x0, symName: __ZNSt3__128__exception_guard_exceptionsINS_6vectorINS_10shared_ptrIN2sf7TextureEEENS_9allocatorIS5_EEE16__destroy_vectorEEC1B8ne180100ES9_, symObjAddr: 0x7E7C, symBinAddr: 0x10000A8E4, symSize: 0x34 }
  - { offset: 0x367CE, size: 0x8, addend: 0x0, symName: __ZNSt3__128__exception_guard_exceptionsINS_6vectorINS_10shared_ptrIN2sf7TextureEEENS_9allocatorIS5_EEE16__destroy_vectorEEC2B8ne180100ES9_, symObjAddr: 0x7EB0, symBinAddr: 0x10000A918, symSize: 0x24 }
  - { offset: 0x36807, size: 0x8, addend: 0x0, symName: __ZNSt3__16vectorINS_10shared_ptrIN2sf7TextureEEENS_9allocatorIS4_EEE16__destroy_vectorC2B8ne180100ERS7_, symObjAddr: 0x7ED4, symBinAddr: 0x10000A93C, symSize: 0x20 }
  - { offset: 0x36841, size: 0x8, addend: 0x0, symName: __ZNKSt3__16vectorINS_10shared_ptrIN2sf7TextureEEENS_9allocatorIS4_EEE8max_sizeEv, symObjAddr: 0x7EF4, symBinAddr: 0x10000A95C, symSize: 0x60 }
  - { offset: 0x36869, size: 0x8, addend: 0x0, symName: __ZNKSt3__16vectorINS_10shared_ptrIN2sf7TextureEEENS_9allocatorIS4_EEE20__throw_length_errorB8ne180100Ev, symObjAddr: 0x7F54, symBinAddr: 0x10000A9BC, symSize: 0x1C }
  - { offset: 0x3688F, size: 0x8, addend: 0x0, symName: __ZNSt3__16vectorINS_10shared_ptrIN2sf7TextureEEENS_9allocatorIS4_EEE7__allocB8ne180100Ev, symObjAddr: 0x7FB0, symBinAddr: 0x10000AA18, symSize: 0x28 }
  - { offset: 0x368B5, size: 0x8, addend: 0x0, symName: __ZNSt3__16vectorINS_10shared_ptrIN2sf7TextureEEENS_9allocatorIS4_EEE9__end_capB8ne180100Ev, symObjAddr: 0x7FD8, symBinAddr: 0x10000AA40, symSize: 0x28 }
  - { offset: 0x368DB, size: 0x8, addend: 0x0, symName: __ZNKSt3__16vectorINS_10shared_ptrIN2sf7TextureEEENS_9allocatorIS4_EEE14__annotate_newB8ne180100Em, symObjAddr: 0x8000, symBinAddr: 0x10000AA68, symSize: 0x14 }
  - { offset: 0x3691C, size: 0x8, addend: 0x0, symName: __ZNSt3__116allocator_traitsINS_9allocatorINS_10shared_ptrIN2sf7TextureEEEEEE8max_sizeB8ne180100IS6_vEEmRKS6_, symObjAddr: 0x8040, symBinAddr: 0x10000AAA8, symSize: 0x24 }
  - { offset: 0x3694B, size: 0x8, addend: 0x0, symName: __ZNKSt3__16vectorINS_10shared_ptrIN2sf7TextureEEENS_9allocatorIS4_EEE7__allocB8ne180100Ev, symObjAddr: 0x8064, symBinAddr: 0x10000AACC, symSize: 0x28 }
  - { offset: 0x36971, size: 0x8, addend: 0x0, symName: __ZNSt3__114numeric_limitsIlE3maxB8ne180100Ev, symObjAddr: 0x808C, symBinAddr: 0x10000AAF4, symSize: 0x14 }
  - { offset: 0x36985, size: 0x8, addend: 0x0, symName: __ZNKSt3__16__lessIvvEclB8ne180100ImmEEbRKT_RKT0_, symObjAddr: 0x80F4, symBinAddr: 0x10000AB5C, symSize: 0x34 }
  - { offset: 0x369DB, size: 0x8, addend: 0x0, symName: __ZNKSt3__19allocatorINS_10shared_ptrIN2sf7TextureEEEE8max_sizeB8ne180100Ev, symObjAddr: 0x8128, symBinAddr: 0x10000AB90, symSize: 0x14 }
  - { offset: 0x36A01, size: 0x8, addend: 0x0, symName: __ZNKSt3__117__compressed_pairIPNS_10shared_ptrIN2sf7TextureEEENS_9allocatorIS4_EEE6secondB8ne180100Ev, symObjAddr: 0x813C, symBinAddr: 0x10000ABA4, symSize: 0x24 }
  - { offset: 0x36A27, size: 0x8, addend: 0x0, symName: __ZNKSt3__122__compressed_pair_elemINS_9allocatorINS_10shared_ptrIN2sf7TextureEEEEELi1ELb1EE5__getB8ne180100Ev, symObjAddr: 0x8160, symBinAddr: 0x10000ABC8, symSize: 0x14 }
  - { offset: 0x36A4D, size: 0x8, addend: 0x0, symName: __ZNSt3__123__libcpp_numeric_limitsIlLb1EE3maxB8ne180100Ev, symObjAddr: 0x8174, symBinAddr: 0x10000ABDC, symSize: 0x8 }
  - { offset: 0x36A61, size: 0x8, addend: 0x0, symName: __ZNSt3__19allocatorINS_10shared_ptrIN2sf7TextureEEEE8allocateB8ne180100Em, symObjAddr: 0x817C, symBinAddr: 0x10000ABE4, symSize: 0x58 }
  - { offset: 0x36A96, size: 0x8, addend: 0x0, symName: __ZNSt3__117__compressed_pairIPNS_10shared_ptrIN2sf7TextureEEENS_9allocatorIS4_EEE6secondB8ne180100Ev, symObjAddr: 0x81D4, symBinAddr: 0x10000AC3C, symSize: 0x24 }
  - { offset: 0x36ABC, size: 0x8, addend: 0x0, symName: __ZNSt3__122__compressed_pair_elemINS_9allocatorINS_10shared_ptrIN2sf7TextureEEEEELi1ELb1EE5__getB8ne180100Ev, symObjAddr: 0x81F8, symBinAddr: 0x10000AC60, symSize: 0x14 }
  - { offset: 0x36AE2, size: 0x8, addend: 0x0, symName: __ZNSt3__117__compressed_pairIPNS_10shared_ptrIN2sf7TextureEEENS_9allocatorIS4_EEE5firstB8ne180100Ev, symObjAddr: 0x820C, symBinAddr: 0x10000AC74, symSize: 0x24 }
  - { offset: 0x36B08, size: 0x8, addend: 0x0, symName: __ZNSt3__122__compressed_pair_elemIPNS_10shared_ptrIN2sf7TextureEEELi0ELb0EE5__getB8ne180100Ev, symObjAddr: 0x8230, symBinAddr: 0x10000AC98, symSize: 0x14 }
  - { offset: 0x36B49, size: 0x8, addend: 0x0, symName: __ZNSt3__16vectorINS_10shared_ptrIN2sf7TextureEEENS_9allocatorIS4_EEE21_ConstructTransactionC1B8ne180100ERS7_m, symObjAddr: 0x8244, symBinAddr: 0x10000ACAC, symSize: 0x3C }
  - { offset: 0x36B93, size: 0x8, addend: 0x0, symName: __ZNSt3__116allocator_traitsINS_9allocatorINS_10shared_ptrIN2sf7TextureEEEEEE9constructB8ne180100IS5_JEvEEvRS6_PT_DpOT0_, symObjAddr: 0x8280, symBinAddr: 0x10000ACE8, symSize: 0x2C }
  - { offset: 0x36BD7, size: 0x8, addend: 0x0, symName: __ZNSt3__16vectorINS_10shared_ptrIN2sf7TextureEEENS_9allocatorIS4_EEE21_ConstructTransactionD1B8ne180100Ev, symObjAddr: 0x82C0, symBinAddr: 0x10000AD28, symSize: 0x2C }
  - { offset: 0x36C01, size: 0x8, addend: 0x0, symName: __ZNSt3__16vectorINS_10shared_ptrIN2sf7TextureEEENS_9allocatorIS4_EEE21_ConstructTransactionC2B8ne180100ERS7_m, symObjAddr: 0x82EC, symBinAddr: 0x10000AD54, symSize: 0x44 }
  - { offset: 0x36C4B, size: 0x8, addend: 0x0, symName: __ZNSt3__19allocatorINS_10shared_ptrIN2sf7TextureEEEE9constructB8ne180100IS4_JEEEvPT_DpOT0_, symObjAddr: 0x8330, symBinAddr: 0x10000AD98, symSize: 0x28 }
  - { offset: 0x36C8E, size: 0x8, addend: 0x0, symName: __ZNSt3__16vectorINS_10shared_ptrIN2sf7TextureEEENS_9allocatorIS4_EEE21_ConstructTransactionD2B8ne180100Ev, symObjAddr: 0x8358, symBinAddr: 0x10000ADC0, symSize: 0x20 }
  - { offset: 0x36CB8, size: 0x8, addend: 0x0, symName: __ZNSt3__128__exception_guard_exceptionsINS_6vectorINS_10shared_ptrIN2sf7TextureEEENS_9allocatorIS5_EEE16__destroy_vectorEED2B8ne180100Ev, symObjAddr: 0x8378, symBinAddr: 0x10000ADE0, symSize: 0x50 }
  - { offset: 0x36CE2, size: 0x8, addend: 0x0, symName: __ZNSt3__16vectorINS_10shared_ptrIN2sf7TextureEEENS_9allocatorIS4_EEE16__destroy_vectorclB8ne180100Ev, symObjAddr: 0x83C8, symBinAddr: 0x10000AE30, symSize: 0x90 }
  - { offset: 0x36D08, size: 0x8, addend: 0x0, symName: __ZNSt3__16vectorINS_10shared_ptrIN2sf7TextureEEENS_9allocatorIS4_EEE7__clearB8ne180100Ev, symObjAddr: 0x8458, symBinAddr: 0x10000AEC0, symSize: 0x28 }
  - { offset: 0x36D2E, size: 0x8, addend: 0x0, symName: __ZNKSt3__16vectorINS_10shared_ptrIN2sf7TextureEEENS_9allocatorIS4_EEE17__annotate_deleteB8ne180100Ev, symObjAddr: 0x8480, symBinAddr: 0x10000AEE8, symSize: 0x10 }
  - { offset: 0x36D54, size: 0x8, addend: 0x0, symName: __ZNSt3__116allocator_traitsINS_9allocatorINS_10shared_ptrIN2sf7TextureEEEEEE10deallocateB8ne180100ERS6_PS5_m, symObjAddr: 0x8490, symBinAddr: 0x10000AEF8, symSize: 0x34 }
  - { offset: 0x36D99, size: 0x8, addend: 0x0, symName: __ZNKSt3__16vectorINS_10shared_ptrIN2sf7TextureEEENS_9allocatorIS4_EEE8capacityB8ne180100Ev, symObjAddr: 0x84C4, symBinAddr: 0x10000AF2C, symSize: 0x40 }
  - { offset: 0x36DBF, size: 0x8, addend: 0x0, symName: __ZNSt3__16vectorINS_10shared_ptrIN2sf7TextureEEENS_9allocatorIS4_EEE22__base_destruct_at_endB8ne180100EPS4_, symObjAddr: 0x8504, symBinAddr: 0x10000AF6C, symSize: 0x8C }
  - { offset: 0x36E05, size: 0x8, addend: 0x0, symName: __ZNSt3__116allocator_traitsINS_9allocatorINS_10shared_ptrIN2sf7TextureEEEEEE7destroyB8ne180100IS5_vEEvRS6_PT_, symObjAddr: 0x8590, symBinAddr: 0x10000AFF8, symSize: 0x2C }
  - { offset: 0x36E44, size: 0x8, addend: 0x0, symName: __ZNSt3__19allocatorINS_10shared_ptrIN2sf7TextureEEEE7destroyB8ne180100EPS4_, symObjAddr: 0x85BC, symBinAddr: 0x10000B024, symSize: 0x28 }
  - { offset: 0x36E79, size: 0x8, addend: 0x0, symName: __ZNSt3__19allocatorINS_10shared_ptrIN2sf7TextureEEEE10deallocateB8ne180100EPS4_m, symObjAddr: 0x85E4, symBinAddr: 0x10000B04C, symSize: 0x40 }
  - { offset: 0x36EBD, size: 0x8, addend: 0x0, symName: __ZNKSt3__16vectorINS_10shared_ptrIN2sf7TextureEEENS_9allocatorIS4_EEE9__end_capB8ne180100Ev, symObjAddr: 0x8624, symBinAddr: 0x10000B08C, symSize: 0x28 }
  - { offset: 0x36EE3, size: 0x8, addend: 0x0, symName: __ZNKSt3__117__compressed_pairIPNS_10shared_ptrIN2sf7TextureEEENS_9allocatorIS4_EEE5firstB8ne180100Ev, symObjAddr: 0x864C, symBinAddr: 0x10000B0B4, symSize: 0x24 }
  - { offset: 0x36F09, size: 0x8, addend: 0x0, symName: __ZNKSt3__122__compressed_pair_elemIPNS_10shared_ptrIN2sf7TextureEEELi0ELb0EE5__getB8ne180100Ev, symObjAddr: 0x8670, symBinAddr: 0x10000B0D8, symSize: 0x14 }
  - { offset: 0x36F2F, size: 0x8, addend: 0x0, symName: __ZNSt3__16vectorINS_10shared_ptrIN2sf7TextureEEENS_9allocatorIS4_EEED2B8ne180100Ev, symObjAddr: 0x8684, symBinAddr: 0x10000B0EC, symSize: 0x40 }
  - { offset: 0x36F59, size: 0x8, addend: 0x0, symName: __ZNSt3__112basic_stringIcNS_11char_traitsIcEENS_9allocatorIcEEEC2B8ne180100ILi0EEEPKc, symObjAddr: 0x86C4, symBinAddr: 0x10000B12C, symSize: 0x58 }
  - { offset: 0x36F99, size: 0x8, addend: 0x0, symName: __ZNSt3__110shared_ptrIN2sf7TextureEEC1B8ne180100EOS3_, symObjAddr: 0x871C, symBinAddr: 0x10000B184, symSize: 0x34 }
  - { offset: 0x36FD3, size: 0x8, addend: 0x0, symName: __ZNSt3__110shared_ptrIN2sf7TextureEE4swapB8ne180100ERS3_, symObjAddr: 0x8750, symBinAddr: 0x10000B1B8, symSize: 0x44 }
  - { offset: 0x37009, size: 0x8, addend: 0x0, symName: __ZNSt3__110shared_ptrIN2sf7TextureEEC2B8ne180100EOS3_, symObjAddr: 0x8794, symBinAddr: 0x10000B1FC, symSize: 0x40 }
  - { offset: 0x37043, size: 0x8, addend: 0x0, symName: __ZNSt3__14__fs10filesystem4pathC2B8ne180100INS_12basic_stringIcNS_11char_traitsIcEENS_9allocatorIcEEEEvEERKT_NS2_6formatE, symObjAddr: 0x884C, symBinAddr: 0x10000B2B4, symSize: 0x68 }
  - { offset: 0x37093, size: 0x8, addend: 0x0, symName: __ZNSt3__14__fs10filesystem8_PathCVTIcE15__append_sourceB8ne180100INS_12basic_stringIcNS_11char_traitsIcEENS_9allocatorIcEEEEEEvRSA_RKT_, symObjAddr: 0x88B4, symBinAddr: 0x10000B31C, symSize: 0x4C }
  - { offset: 0x370DC, size: 0x8, addend: 0x0, symName: __ZNSt3__14__fs10filesystem20__is_pathable_stringINS_12basic_stringIcNS_11char_traitsIcEENS_9allocatorIcEEEEvE13__range_beginB8ne180100ERKS8_, symObjAddr: 0x8900, symBinAddr: 0x10000B368, symSize: 0x24 }
  - { offset: 0x37100, size: 0x8, addend: 0x0, symName: __ZNSt3__14__fs10filesystem20__is_pathable_stringINS_12basic_stringIcNS_11char_traitsIcEENS_9allocatorIcEEEEvE11__range_endB8ne180100ERKS8_, symObjAddr: 0x8924, symBinAddr: 0x10000B38C, symSize: 0x3C }
  - { offset: 0x37124, size: 0x8, addend: 0x0, symName: __ZNKSt3__112basic_stringIcNS_11char_traitsIcEENS_9allocatorIcEEE6lengthB8ne180100Ev, symObjAddr: 0x8960, symBinAddr: 0x10000B3C8, symSize: 0x24 }
  - { offset: 0x3714A, size: 0x8, addend: 0x0, symName: __ZNSt3__16vectorIN2sf6SpriteENS_9allocatorIS2_EEEC2B8ne180100Ev, symObjAddr: 0x8984, symBinAddr: 0x10000B3EC, symSize: 0x4C }
  - { offset: 0x37174, size: 0x8, addend: 0x0, symName: __ZNSt3__117__compressed_pairIPN2sf6SpriteENS_9allocatorIS2_EEEC1B8ne180100IDnNS_18__default_init_tagEEEOT_OT0_, symObjAddr: 0x89D0, symBinAddr: 0x10000B438, symSize: 0x3C }
  - { offset: 0x371CE, size: 0x8, addend: 0x0, symName: __ZNSt3__117__compressed_pairIPN2sf6SpriteENS_9allocatorIS2_EEEC2B8ne180100IDnNS_18__default_init_tagEEEOT_OT0_, symObjAddr: 0x8A0C, symBinAddr: 0x10000B474, symSize: 0x40 }
  - { offset: 0x37228, size: 0x8, addend: 0x0, symName: __ZNSt3__122__compressed_pair_elemIPN2sf6SpriteELi0ELb0EEC2B8ne180100IDnvEEOT_, symObjAddr: 0x8A4C, symBinAddr: 0x10000B4B4, symSize: 0x1C }
  - { offset: 0x3726B, size: 0x8, addend: 0x0, symName: __ZNSt3__122__compressed_pair_elemINS_9allocatorIN2sf6SpriteEEELi1ELb1EEC2B8ne180100ENS_18__default_init_tagE, symObjAddr: 0x8A68, symBinAddr: 0x10000B4D0, symSize: 0x2C }
  - { offset: 0x372A0, size: 0x8, addend: 0x0, symName: __ZNSt3__19allocatorIN2sf6SpriteEEC2B8ne180100Ev, symObjAddr: 0x8A94, symBinAddr: 0x10000B4FC, symSize: 0x2C }
  - { offset: 0x372CA, size: 0x8, addend: 0x0, symName: __ZNSt3__116__non_trivial_ifILb1ENS_9allocatorIN2sf6SpriteEEEEC2B8ne180100Ev, symObjAddr: 0x8AC0, symBinAddr: 0x10000B528, symSize: 0x14 }
  - { offset: 0x372F4, size: 0x8, addend: 0x0, symName: __ZNSt3__16vectorIN2sf6SpriteENS_9allocatorIS2_EEED2B8ne180100Ev, symObjAddr: 0x8AD4, symBinAddr: 0x10000B53C, symSize: 0x44 }
  - { offset: 0x3731E, size: 0x8, addend: 0x0, symName: __ZNSt3__16vectorIN2sf6SpriteENS_9allocatorIS2_EEE16__destroy_vectorC1B8ne180100ERS5_, symObjAddr: 0x8B18, symBinAddr: 0x10000B580, symSize: 0x34 }
  - { offset: 0x37358, size: 0x8, addend: 0x0, symName: __ZNSt3__16vectorIN2sf6SpriteENS_9allocatorIS2_EEE16__destroy_vectorclB8ne180100Ev, symObjAddr: 0x8B4C, symBinAddr: 0x10000B5B4, symSize: 0x90 }
  - { offset: 0x3737E, size: 0x8, addend: 0x0, symName: __ZNSt3__16vectorIN2sf6SpriteENS_9allocatorIS2_EEE16__destroy_vectorC2B8ne180100ERS5_, symObjAddr: 0x8BDC, symBinAddr: 0x10000B644, symSize: 0x20 }
  - { offset: 0x373B8, size: 0x8, addend: 0x0, symName: __ZNSt3__16vectorIN2sf6SpriteENS_9allocatorIS2_EEE7__clearB8ne180100Ev, symObjAddr: 0x8BFC, symBinAddr: 0x10000B664, symSize: 0x28 }
  - { offset: 0x373DE, size: 0x8, addend: 0x0, symName: __ZNKSt3__16vectorIN2sf6SpriteENS_9allocatorIS2_EEE17__annotate_deleteB8ne180100Ev, symObjAddr: 0x8C24, symBinAddr: 0x10000B68C, symSize: 0x10 }
  - { offset: 0x37404, size: 0x8, addend: 0x0, symName: __ZNSt3__116allocator_traitsINS_9allocatorIN2sf6SpriteEEEE10deallocateB8ne180100ERS4_PS3_m, symObjAddr: 0x8C34, symBinAddr: 0x10000B69C, symSize: 0x34 }
  - { offset: 0x37449, size: 0x8, addend: 0x0, symName: __ZNSt3__16vectorIN2sf6SpriteENS_9allocatorIS2_EEE7__allocB8ne180100Ev, symObjAddr: 0x8C68, symBinAddr: 0x10000B6D0, symSize: 0x28 }
  - { offset: 0x3746F, size: 0x8, addend: 0x0, symName: __ZNKSt3__16vectorIN2sf6SpriteENS_9allocatorIS2_EEE8capacityB8ne180100Ev, symObjAddr: 0x8C90, symBinAddr: 0x10000B6F8, symSize: 0x40 }
  - { offset: 0x37495, size: 0x8, addend: 0x0, symName: __ZNSt3__16vectorIN2sf6SpriteENS_9allocatorIS2_EEE22__base_destruct_at_endB8ne180100EPS2_, symObjAddr: 0x8CD0, symBinAddr: 0x10000B738, symSize: 0x8C }
  - { offset: 0x374DB, size: 0x8, addend: 0x0, symName: __ZNSt3__116allocator_traitsINS_9allocatorIN2sf6SpriteEEEE7destroyB8ne180100IS3_vEEvRS4_PT_, symObjAddr: 0x8D5C, symBinAddr: 0x10000B7C4, symSize: 0x2C }
  - { offset: 0x3751A, size: 0x8, addend: 0x0, symName: __ZNSt3__19allocatorIN2sf6SpriteEE7destroyB8ne180100EPS2_, symObjAddr: 0x8D9C, symBinAddr: 0x10000B804, symSize: 0x30 }
  - { offset: 0x3754F, size: 0x8, addend: 0x0, symName: __ZNSt3__19allocatorIN2sf6SpriteEE10deallocateB8ne180100EPS2_m, symObjAddr: 0x8DCC, symBinAddr: 0x10000B834, symSize: 0x44 }
  - { offset: 0x37593, size: 0x8, addend: 0x0, symName: __ZNSt3__117__compressed_pairIPN2sf6SpriteENS_9allocatorIS2_EEE6secondB8ne180100Ev, symObjAddr: 0x8E10, symBinAddr: 0x10000B878, symSize: 0x24 }
  - { offset: 0x375B9, size: 0x8, addend: 0x0, symName: __ZNSt3__122__compressed_pair_elemINS_9allocatorIN2sf6SpriteEEELi1ELb1EE5__getB8ne180100Ev, symObjAddr: 0x8E34, symBinAddr: 0x10000B89C, symSize: 0x14 }
  - { offset: 0x375DF, size: 0x8, addend: 0x0, symName: __ZNKSt3__16vectorIN2sf6SpriteENS_9allocatorIS2_EEE9__end_capB8ne180100Ev, symObjAddr: 0x8E48, symBinAddr: 0x10000B8B0, symSize: 0x28 }
  - { offset: 0x37605, size: 0x8, addend: 0x0, symName: __ZNKSt3__117__compressed_pairIPN2sf6SpriteENS_9allocatorIS2_EEE5firstB8ne180100Ev, symObjAddr: 0x8E70, symBinAddr: 0x10000B8D8, symSize: 0x24 }
  - { offset: 0x3762B, size: 0x8, addend: 0x0, symName: __ZNKSt3__122__compressed_pair_elemIPN2sf6SpriteELi0ELb0EE5__getB8ne180100Ev, symObjAddr: 0x8E94, symBinAddr: 0x10000B8FC, symSize: 0x14 }
  - { offset: 0x37651, size: 0x8, addend: 0x0, symName: __ZNSt3__16vectorIN2sf6SpriteENS_9allocatorIS2_EEE9__end_capB8ne180100Ev, symObjAddr: 0x8EA8, symBinAddr: 0x10000B910, symSize: 0x28 }
  - { offset: 0x37677, size: 0x8, addend: 0x0, symName: __ZNSt3__16vectorIN2sf6SpriteENS_9allocatorIS2_EEE22__construct_one_at_endB8ne180100IJRKS2_EEEvDpOT_, symObjAddr: 0x8ED0, symBinAddr: 0x10000B938, symSize: 0x90 }
  - { offset: 0x376C8, size: 0x8, addend: 0x0, symName: __ZNSt3__16vectorIN2sf6SpriteENS_9allocatorIS2_EEE21__push_back_slow_pathIRKS2_EEPS2_OT_, symObjAddr: 0x8F60, symBinAddr: 0x10000B9C8, symSize: 0xE8 }
  - { offset: 0x37729, size: 0x8, addend: 0x0, symName: __ZNSt3__117__compressed_pairIPN2sf6SpriteENS_9allocatorIS2_EEE5firstB8ne180100Ev, symObjAddr: 0x9048, symBinAddr: 0x10000BAB0, symSize: 0x24 }
  - { offset: 0x3774F, size: 0x8, addend: 0x0, symName: __ZNSt3__122__compressed_pair_elemIPN2sf6SpriteELi0ELb0EE5__getB8ne180100Ev, symObjAddr: 0x906C, symBinAddr: 0x10000BAD4, symSize: 0x14 }
  - { offset: 0x37790, size: 0x8, addend: 0x0, symName: __ZNSt3__16vectorIN2sf6SpriteENS_9allocatorIS2_EEE21_ConstructTransactionC1B8ne180100ERS5_m, symObjAddr: 0x9080, symBinAddr: 0x10000BAE8, symSize: 0x3C }
  - { offset: 0x377DA, size: 0x8, addend: 0x0, symName: __ZNSt3__116allocator_traitsINS_9allocatorIN2sf6SpriteEEEE9constructB8ne180100IS3_JRKS3_EvEEvRS4_PT_DpOT0_, symObjAddr: 0x90BC, symBinAddr: 0x10000BB24, symSize: 0x34 }
  - { offset: 0x37834, size: 0x8, addend: 0x0, symName: __ZNSt3__16vectorIN2sf6SpriteENS_9allocatorIS2_EEE21_ConstructTransactionD1B8ne180100Ev, symObjAddr: 0x90F0, symBinAddr: 0x10000BB58, symSize: 0x2C }
  - { offset: 0x3785E, size: 0x8, addend: 0x0, symName: __ZNSt3__16vectorIN2sf6SpriteENS_9allocatorIS2_EEE21_ConstructTransactionC2B8ne180100ERS5_m, symObjAddr: 0x911C, symBinAddr: 0x10000BB84, symSize: 0x4C }
  - { offset: 0x378A8, size: 0x8, addend: 0x0, symName: __ZNSt3__19allocatorIN2sf6SpriteEE9constructB8ne180100IS2_JRKS2_EEEvPT_DpOT0_, symObjAddr: 0x9168, symBinAddr: 0x10000BBD0, symSize: 0x30 }
  - { offset: 0x37900, size: 0x8, addend: 0x0, symName: __ZN2sf6SpriteC1ERKS0_, symObjAddr: 0x9198, symBinAddr: 0x10000BC00, symSize: 0x34 }
  - { offset: 0x37935, size: 0x8, addend: 0x0, symName: __ZN2sf6SpriteC2ERKS0_, symObjAddr: 0x91CC, symBinAddr: 0x10000BC34, symSize: 0x78 }
  - { offset: 0x3796A, size: 0x8, addend: 0x0, symName: __ZN2sf8DrawableC2ERKS0_, symObjAddr: 0x9244, symBinAddr: 0x10000BCAC, symSize: 0x28 }
  - { offset: 0x379A5, size: 0x8, addend: 0x0, symName: __ZN2sf13TransformableC2ERKS0_, symObjAddr: 0x926C, symBinAddr: 0x10000BCD4, symSize: 0x50 }
  - { offset: 0x379DA, size: 0x8, addend: 0x0, symName: __ZN2sf8DrawableD1Ev, symObjAddr: 0x92BC, symBinAddr: 0x10000BD24, symSize: 0x14 }
  - { offset: 0x37A04, size: 0x8, addend: 0x0, symName: __ZN2sf8DrawableD0Ev, symObjAddr: 0x92D0, symBinAddr: 0x10000BD38, symSize: 0xC }
  - { offset: 0x37A2E, size: 0x8, addend: 0x0, symName: __ZN2sf13TransformableD1Ev, symObjAddr: 0x92DC, symBinAddr: 0x10000BD44, symSize: 0x2C }
  - { offset: 0x37A58, size: 0x8, addend: 0x0, symName: __ZN2sf13TransformableD0Ev, symObjAddr: 0x9308, symBinAddr: 0x10000BD70, symSize: 0x30 }
  - { offset: 0x37A82, size: 0x8, addend: 0x0, symName: __ZNSt3__16vectorIN2sf6SpriteENS_9allocatorIS2_EEE21_ConstructTransactionD2B8ne180100Ev, symObjAddr: 0x9338, symBinAddr: 0x10000BDA0, symSize: 0x20 }
  - { offset: 0x37AAC, size: 0x8, addend: 0x0, symName: __ZNKSt3__16vectorIN2sf6SpriteENS_9allocatorIS2_EEE11__recommendB8ne180100Em, symObjAddr: 0x9358, symBinAddr: 0x10000BDC0, symSize: 0xB4 }
  - { offset: 0x37B04, size: 0x8, addend: 0x0, symName: __ZNKSt3__16vectorIN2sf6SpriteENS_9allocatorIS2_EEE4sizeB8ne180100Ev, symObjAddr: 0x940C, symBinAddr: 0x10000BE74, symSize: 0x28 }
  - { offset: 0x37B2A, size: 0x8, addend: 0x0, symName: __ZNSt3__114__split_bufferIN2sf6SpriteERNS_9allocatorIS2_EEEC1EmmS5_, symObjAddr: 0x9434, symBinAddr: 0x10000BE9C, symSize: 0x44 }
  - { offset: 0x37B83, size: 0x8, addend: 0x0, symName: __ZNSt3__114__split_bufferIN2sf6SpriteERNS_9allocatorIS2_EEED1Ev, symObjAddr: 0x9588, symBinAddr: 0x10000BFF0, symSize: 0x2C }
  - { offset: 0x37BAF, size: 0x8, addend: 0x0, symName: __ZNKSt3__16vectorIN2sf6SpriteENS_9allocatorIS2_EEE8max_sizeEv, symObjAddr: 0x95B4, symBinAddr: 0x10000C01C, symSize: 0x60 }
  - { offset: 0x37BD7, size: 0x8, addend: 0x0, symName: __ZNKSt3__16vectorIN2sf6SpriteENS_9allocatorIS2_EEE20__throw_length_errorB8ne180100Ev, symObjAddr: 0x9614, symBinAddr: 0x10000C07C, symSize: 0x1C }
  - { offset: 0x37C08, size: 0x8, addend: 0x0, symName: __ZNSt3__116allocator_traitsINS_9allocatorIN2sf6SpriteEEEE8max_sizeB8ne180100IS4_vEEmRKS4_, symObjAddr: 0x965C, symBinAddr: 0x10000C0C4, symSize: 0x24 }
  - { offset: 0x37C37, size: 0x8, addend: 0x0, symName: __ZNKSt3__16vectorIN2sf6SpriteENS_9allocatorIS2_EEE7__allocB8ne180100Ev, symObjAddr: 0x9680, symBinAddr: 0x10000C0E8, symSize: 0x28 }
  - { offset: 0x37C5D, size: 0x8, addend: 0x0, symName: __ZNKSt3__19allocatorIN2sf6SpriteEE8max_sizeB8ne180100Ev, symObjAddr: 0x96A8, symBinAddr: 0x10000C110, symSize: 0x20 }
  - { offset: 0x37C83, size: 0x8, addend: 0x0, symName: __ZNKSt3__117__compressed_pairIPN2sf6SpriteENS_9allocatorIS2_EEE6secondB8ne180100Ev, symObjAddr: 0x96C8, symBinAddr: 0x10000C130, symSize: 0x24 }
  - { offset: 0x37CA9, size: 0x8, addend: 0x0, symName: __ZNKSt3__122__compressed_pair_elemINS_9allocatorIN2sf6SpriteEEELi1ELb1EE5__getB8ne180100Ev, symObjAddr: 0x96EC, symBinAddr: 0x10000C154, symSize: 0x14 }
  - { offset: 0x37CCF, size: 0x8, addend: 0x0, symName: __ZNSt3__114__split_bufferIN2sf6SpriteERNS_9allocatorIS2_EEEC2EmmS5_, symObjAddr: 0x9754, symBinAddr: 0x10000C1BC, symSize: 0xE0 }
  - { offset: 0x37D47, size: 0x8, addend: 0x0, symName: __ZNSt3__117__compressed_pairIPN2sf6SpriteERNS_9allocatorIS2_EEEC1B8ne180100IDnS6_EEOT_OT0_, symObjAddr: 0x9834, symBinAddr: 0x10000C29C, symSize: 0x3C }
  - { offset: 0x37DA1, size: 0x8, addend: 0x0, symName: __ZNSt3__114__split_bufferIN2sf6SpriteERNS_9allocatorIS2_EEE7__allocB8ne180100Ev, symObjAddr: 0x98B0, symBinAddr: 0x10000C318, symSize: 0x28 }
  - { offset: 0x37DC7, size: 0x8, addend: 0x0, symName: __ZNSt3__114__split_bufferIN2sf6SpriteERNS_9allocatorIS2_EEE9__end_capB8ne180100Ev, symObjAddr: 0x98D8, symBinAddr: 0x10000C340, symSize: 0x28 }
  - { offset: 0x37DED, size: 0x8, addend: 0x0, symName: __ZNSt3__117__compressed_pairIPN2sf6SpriteERNS_9allocatorIS2_EEEC2B8ne180100IDnS6_EEOT_OT0_, symObjAddr: 0x9900, symBinAddr: 0x10000C368, symSize: 0x48 }
  - { offset: 0x37E47, size: 0x8, addend: 0x0, symName: __ZNSt3__122__compressed_pair_elemIRNS_9allocatorIN2sf6SpriteEEELi1ELb0EEC2B8ne180100IS5_vEEOT_, symObjAddr: 0x9948, symBinAddr: 0x10000C3B0, symSize: 0x20 }
  - { offset: 0x37E8A, size: 0x8, addend: 0x0, symName: __ZNSt3__19allocatorIN2sf6SpriteEE8allocateB8ne180100Em, symObjAddr: 0x9968, symBinAddr: 0x10000C3D0, symSize: 0x5C }
  - { offset: 0x37EBF, size: 0x8, addend: 0x0, symName: __ZNSt3__117__compressed_pairIPN2sf6SpriteERNS_9allocatorIS2_EEE6secondB8ne180100Ev, symObjAddr: 0x99C4, symBinAddr: 0x10000C42C, symSize: 0x28 }
  - { offset: 0x37EE5, size: 0x8, addend: 0x0, symName: __ZNSt3__122__compressed_pair_elemIRNS_9allocatorIN2sf6SpriteEEELi1ELb0EE5__getB8ne180100Ev, symObjAddr: 0x99EC, symBinAddr: 0x10000C454, symSize: 0x18 }
  - { offset: 0x37F0B, size: 0x8, addend: 0x0, symName: __ZNSt3__117__compressed_pairIPN2sf6SpriteERNS_9allocatorIS2_EEE5firstB8ne180100Ev, symObjAddr: 0x9A04, symBinAddr: 0x10000C46C, symSize: 0x24 }
  - { offset: 0x37F31, size: 0x8, addend: 0x0, symName: __ZNSt3__116reverse_iteratorIPN2sf6SpriteEEC1B8ne180100ES3_, symObjAddr: 0x9B54, symBinAddr: 0x10000C5BC, symSize: 0x34 }
  - { offset: 0x37F6A, size: 0x8, addend: 0x0, symName: __ZNKSt3__116reverse_iteratorIPN2sf6SpriteEE4baseB8ne180100Ev, symObjAddr: 0x9B88, symBinAddr: 0x10000C5F0, symSize: 0x18 }
  - { offset: 0x37F90, size: 0x8, addend: 0x0, symName: __ZNKSt3__16vectorIN2sf6SpriteENS_9allocatorIS2_EEE14__annotate_newB8ne180100Em, symObjAddr: 0x9BDC, symBinAddr: 0x10000C644, symSize: 0x14 }
  - { offset: 0x37FC6, size: 0x8, addend: 0x0, symName: __ZNSt3__129_AllocatorDestroyRangeReverseINS_9allocatorIN2sf6SpriteEEENS_16reverse_iteratorIPS3_EEEC1B8ne180100ERS4_RS7_SA_, symObjAddr: 0x9C3C, symBinAddr: 0x10000C6A4, symSize: 0x44 }
  - { offset: 0x38026, size: 0x8, addend: 0x0, symName: __ZNSt3__116allocator_traitsINS_9allocatorIN2sf6SpriteEEEE9constructB8ne180100IS3_JS3_EvEEvRS4_PT_DpOT0_, symObjAddr: 0x9CC8, symBinAddr: 0x10000C730, symSize: 0x34 }
  - { offset: 0x38080, size: 0x8, addend: 0x0, symName: __ZNKSt3__116reverse_iteratorIPN2sf6SpriteEEdeB8ne180100Ev, symObjAddr: 0x9D20, symBinAddr: 0x10000C788, symSize: 0x28 }
  - { offset: 0x380B5, size: 0x8, addend: 0x0, symName: __ZNSt3__116reverse_iteratorIPN2sf6SpriteEEppB8ne180100Ev, symObjAddr: 0x9D48, symBinAddr: 0x10000C7B0, symSize: 0x20 }
  - { offset: 0x380DB, size: 0x8, addend: 0x0, symName: __ZNSt3__128__exception_guard_exceptionsINS_29_AllocatorDestroyRangeReverseINS_9allocatorIN2sf6SpriteEEENS_16reverse_iteratorIPS4_EEEEE10__completeB8ne180100Ev, symObjAddr: 0x9D68, symBinAddr: 0x10000C7D0, symSize: 0x1C }
  - { offset: 0x38101, size: 0x8, addend: 0x0, symName: __ZNSt3__128__exception_guard_exceptionsINS_29_AllocatorDestroyRangeReverseINS_9allocatorIN2sf6SpriteEEENS_16reverse_iteratorIPS4_EEEEED1B8ne180100Ev, symObjAddr: 0x9D84, symBinAddr: 0x10000C7EC, symSize: 0x2C }
  - { offset: 0x3812B, size: 0x8, addend: 0x0, symName: __ZNSt3__128__exception_guard_exceptionsINS_29_AllocatorDestroyRangeReverseINS_9allocatorIN2sf6SpriteEEENS_16reverse_iteratorIPS4_EEEEEC1B8ne180100ES9_, symObjAddr: 0x9DB0, symBinAddr: 0x10000C818, symSize: 0x34 }
  - { offset: 0x38165, size: 0x8, addend: 0x0, symName: __ZNSt3__128__exception_guard_exceptionsINS_29_AllocatorDestroyRangeReverseINS_9allocatorIN2sf6SpriteEEENS_16reverse_iteratorIPS4_EEEEEC2B8ne180100ES9_, symObjAddr: 0x9DE4, symBinAddr: 0x10000C84C, symSize: 0x30 }
  - { offset: 0x3819F, size: 0x8, addend: 0x0, symName: __ZNSt3__129_AllocatorDestroyRangeReverseINS_9allocatorIN2sf6SpriteEEENS_16reverse_iteratorIPS3_EEEC2B8ne180100ERS4_RS7_SA_, symObjAddr: 0x9E14, symBinAddr: 0x10000C87C, symSize: 0x38 }
  - { offset: 0x381F9, size: 0x8, addend: 0x0, symName: __ZNSt3__19allocatorIN2sf6SpriteEE9constructB8ne180100IS2_JS2_EEEvPT_DpOT0_, symObjAddr: 0x9E4C, symBinAddr: 0x10000C8B4, symSize: 0x30 }
  - { offset: 0x38251, size: 0x8, addend: 0x0, symName: __ZN2sf6SpriteC1EOS0_, symObjAddr: 0x9E7C, symBinAddr: 0x10000C8E4, symSize: 0x34 }
  - { offset: 0x38286, size: 0x8, addend: 0x0, symName: __ZN2sf6SpriteC2EOS0_, symObjAddr: 0x9EB0, symBinAddr: 0x10000C918, symSize: 0x78 }
  - { offset: 0x382C1, size: 0x8, addend: 0x0, symName: __ZNSt3__119__to_address_helperINS_16reverse_iteratorIPN2sf6SpriteEEEvE6__callB8ne180100ERKS5_, symObjAddr: 0x9F28, symBinAddr: 0x10000C990, symSize: 0x38 }
  - { offset: 0x382E5, size: 0x8, addend: 0x0, symName: __ZNKSt3__116reverse_iteratorIPN2sf6SpriteEEptB8ne180100Ev, symObjAddr: 0x9F60, symBinAddr: 0x10000C9C8, symSize: 0x24 }
  - { offset: 0x3830B, size: 0x8, addend: 0x0, symName: __ZNSt3__128__exception_guard_exceptionsINS_29_AllocatorDestroyRangeReverseINS_9allocatorIN2sf6SpriteEEENS_16reverse_iteratorIPS4_EEEEED2B8ne180100Ev, symObjAddr: 0x9F84, symBinAddr: 0x10000C9EC, symSize: 0x50 }
  - { offset: 0x38335, size: 0x8, addend: 0x0, symName: __ZNKSt3__129_AllocatorDestroyRangeReverseINS_9allocatorIN2sf6SpriteEEENS_16reverse_iteratorIPS3_EEEclB8ne180100Ev, symObjAddr: 0x9FD4, symBinAddr: 0x10000CA3C, symSize: 0xB4 }
  - { offset: 0x3835C, size: 0x8, addend: 0x0, symName: __ZNSt3__116reverse_iteratorINS0_IPN2sf6SpriteEEEEC1B8ne180100ES4_, symObjAddr: 0xA0F8, symBinAddr: 0x10000CB60, symSize: 0x3C }
  - { offset: 0x38395, size: 0x8, addend: 0x0, symName: __ZNSt3__116reverse_iteratorINS0_IPN2sf6SpriteEEEEppB8ne180100Ev, symObjAddr: 0xA1B8, symBinAddr: 0x10000CC20, symSize: 0x30 }
  - { offset: 0x383BB, size: 0x8, addend: 0x0, symName: __ZNKSt3__116reverse_iteratorINS0_IPN2sf6SpriteEEEE4baseB8ne180100Ev, symObjAddr: 0xA1E8, symBinAddr: 0x10000CC50, symSize: 0x24 }
  - { offset: 0x383E7, size: 0x8, addend: 0x0, symName: __ZNSt3__119__to_address_helperINS_16reverse_iteratorINS1_IPN2sf6SpriteEEEEEvE6__callB8ne180100ERKS6_, symObjAddr: 0xA20C, symBinAddr: 0x10000CC74, symSize: 0x38 }
  - { offset: 0x3840B, size: 0x8, addend: 0x0, symName: __ZNKSt3__116reverse_iteratorINS0_IPN2sf6SpriteEEEEptB8ne180100Ev, symObjAddr: 0xA244, symBinAddr: 0x10000CCAC, symSize: 0x24 }
  - { offset: 0x38431, size: 0x8, addend: 0x0, symName: __ZNKSt3__116reverse_iteratorINS0_IPN2sf6SpriteEEEEdeB8ne180100Ev, symObjAddr: 0xA268, symBinAddr: 0x10000CCD0, symSize: 0x34 }
  - { offset: 0x38466, size: 0x8, addend: 0x0, symName: __ZNSt3__116reverse_iteratorIPN2sf6SpriteEEmmB8ne180100Ev, symObjAddr: 0xA29C, symBinAddr: 0x10000CD04, symSize: 0x20 }
  - { offset: 0x3848C, size: 0x8, addend: 0x0, symName: __ZNSt3__116reverse_iteratorINS0_IPN2sf6SpriteEEEEC2B8ne180100ES4_, symObjAddr: 0xA2BC, symBinAddr: 0x10000CD24, symSize: 0x2C }
  - { offset: 0x384C5, size: 0x8, addend: 0x0, symName: __ZNSt3__116reverse_iteratorIPN2sf6SpriteEEC2B8ne180100ES3_, symObjAddr: 0xA2E8, symBinAddr: 0x10000CD50, symSize: 0x28 }
  - { offset: 0x384FE, size: 0x8, addend: 0x0, symName: __ZNSt3__114__split_bufferIN2sf6SpriteERNS_9allocatorIS2_EEED2Ev, symObjAddr: 0xA310, symBinAddr: 0x10000CD78, symSize: 0x8C }
  - { offset: 0x3852A, size: 0x8, addend: 0x0, symName: __ZNSt3__114__split_bufferIN2sf6SpriteERNS_9allocatorIS2_EEE5clearB8ne180100Ev, symObjAddr: 0xA39C, symBinAddr: 0x10000CE04, symSize: 0x28 }
  - { offset: 0x38550, size: 0x8, addend: 0x0, symName: __ZNKSt3__114__split_bufferIN2sf6SpriteERNS_9allocatorIS2_EEE8capacityB8ne180100Ev, symObjAddr: 0xA3C4, symBinAddr: 0x10000CE2C, symSize: 0x40 }
  - { offset: 0x38576, size: 0x8, addend: 0x0, symName: __ZNSt3__114__split_bufferIN2sf6SpriteERNS_9allocatorIS2_EEE17__destruct_at_endB8ne180100EPS2_, symObjAddr: 0xA404, symBinAddr: 0x10000CE6C, symSize: 0x2C }
  - { offset: 0x385AB, size: 0x8, addend: 0x0, symName: __ZNSt3__114__split_bufferIN2sf6SpriteERNS_9allocatorIS2_EEE17__destruct_at_endB8ne180100EPS2_NS_17integral_constantIbLb0EEE, symObjAddr: 0xA430, symBinAddr: 0x10000CE98, symSize: 0x80 }
  - { offset: 0x385ED, size: 0x8, addend: 0x0, symName: __ZNKSt3__114__split_bufferIN2sf6SpriteERNS_9allocatorIS2_EEE9__end_capB8ne180100Ev, symObjAddr: 0xA4B0, symBinAddr: 0x10000CF18, symSize: 0x28 }
  - { offset: 0x38613, size: 0x8, addend: 0x0, symName: __ZNKSt3__117__compressed_pairIPN2sf6SpriteERNS_9allocatorIS2_EEE5firstB8ne180100Ev, symObjAddr: 0xA4D8, symBinAddr: 0x10000CF40, symSize: 0x24 }
  - { offset: 0x38639, size: 0x8, addend: 0x0, symName: __ZNSt3__14__fs10filesystem4pathC2B8ne180100IA21_cvEERKT_NS2_6formatE, symObjAddr: 0xA4FC, symBinAddr: 0x10000CF64, symSize: 0x68 }
  - { offset: 0x38689, size: 0x8, addend: 0x0, symName: __ZNSt3__14__fs10filesystem8_PathCVTIcE15__append_sourceB8ne180100IA21_cEEvRNS_12basic_stringIcNS_11char_traitsIcEENS_9allocatorIcEEEERKT_, symObjAddr: 0xA564, symBinAddr: 0x10000CFCC, symSize: 0x4C }
  - { offset: 0x386C7, size: 0x8, addend: 0x0, symName: __ZNSt3__14__fs10filesystem24__is_pathable_char_arrayIA21_cPccLb1EE13__range_beginB8ne180100EPKc, symObjAddr: 0xA5B0, symBinAddr: 0x10000D018, symSize: 0x14 }
  - { offset: 0x386EB, size: 0x8, addend: 0x0, symName: __ZNSt3__14__fs10filesystem24__is_pathable_char_arrayIA21_cPccLb1EE11__range_endB8ne180100EPKc, symObjAddr: 0xA5C4, symBinAddr: 0x10000D02C, symSize: 0x50 }
  - { offset: 0x38738, size: 0x8, addend: 0x0, symName: __ZNSt3__16vectorINS_12basic_stringIcNS_11char_traitsIcEENS_9allocatorIcEEEENS4_IS6_EEEC2B8ne180100ESt16initializer_listIS6_E, symObjAddr: 0xA614, symBinAddr: 0x10000D07C, symSize: 0x120 }
  - { offset: 0x3878B, size: 0x8, addend: 0x0, symName: __ZNSt3__117__compressed_pairIPNS_12basic_stringIcNS_11char_traitsIcEENS_9allocatorIcEEEENS4_IS6_EEEC1B8ne180100IDnNS_18__default_init_tagEEEOT_OT0_, symObjAddr: 0xA734, symBinAddr: 0x10000D19C, symSize: 0x3C }
  - { offset: 0x387E5, size: 0x8, addend: 0x0, symName: __ZNSt3__16vectorINS_12basic_stringIcNS_11char_traitsIcEENS_9allocatorIcEEEENS4_IS6_EEE16__destroy_vectorC1B8ne180100ERS8_, symObjAddr: 0xA7B0, symBinAddr: 0x10000D218, symSize: 0x34 }
  - { offset: 0x3881F, size: 0x8, addend: 0x0, symName: __ZNKSt16initializer_listINSt3__112basic_stringIcNS0_11char_traitsIcEENS0_9allocatorIcEEEEE4sizeB8ne180100Ev, symObjAddr: 0xA7E4, symBinAddr: 0x10000D24C, symSize: 0x18 }
  - { offset: 0x38845, size: 0x8, addend: 0x0, symName: __ZNSt3__16vectorINS_12basic_stringIcNS_11char_traitsIcEENS_9allocatorIcEEEENS4_IS6_EEE11__vallocateB8ne180100Em, symObjAddr: 0xA7FC, symBinAddr: 0x10000D264, symSize: 0xB4 }
  - { offset: 0x3888B, size: 0x8, addend: 0x0, symName: __ZNSt3__16vectorINS_12basic_stringIcNS_11char_traitsIcEENS_9allocatorIcEEEENS4_IS6_EEE18__construct_at_endIPKS6_SB_EEvT_T0_m, symObjAddr: 0xA8B0, symBinAddr: 0x10000D318, symSize: 0x8C }
  - { offset: 0x38905, size: 0x8, addend: 0x0, symName: __ZNKSt16initializer_listINSt3__112basic_stringIcNS0_11char_traitsIcEENS0_9allocatorIcEEEEE5beginB8ne180100Ev, symObjAddr: 0xA93C, symBinAddr: 0x10000D3A4, symSize: 0x18 }
  - { offset: 0x3892B, size: 0x8, addend: 0x0, symName: __ZNKSt16initializer_listINSt3__112basic_stringIcNS0_11char_traitsIcEENS0_9allocatorIcEEEEE3endB8ne180100Ev, symObjAddr: 0xA954, symBinAddr: 0x10000D3BC, symSize: 0x28 }
  - { offset: 0x38951, size: 0x8, addend: 0x0, symName: __ZNSt3__128__exception_guard_exceptionsINS_6vectorINS_12basic_stringIcNS_11char_traitsIcEENS_9allocatorIcEEEENS5_IS7_EEE16__destroy_vectorEE10__completeB8ne180100Ev, symObjAddr: 0xA97C, symBinAddr: 0x10000D3E4, symSize: 0x1C }
  - { offset: 0x38977, size: 0x8, addend: 0x0, symName: __ZNSt3__128__exception_guard_exceptionsINS_6vectorINS_12basic_stringIcNS_11char_traitsIcEENS_9allocatorIcEEEENS5_IS7_EEE16__destroy_vectorEED1B8ne180100Ev, symObjAddr: 0xA998, symBinAddr: 0x10000D400, symSize: 0x2C }
  - { offset: 0x389A1, size: 0x8, addend: 0x0, symName: __ZNSt3__117__compressed_pairIPNS_12basic_stringIcNS_11char_traitsIcEENS_9allocatorIcEEEENS4_IS6_EEEC2B8ne180100IDnNS_18__default_init_tagEEEOT_OT0_, symObjAddr: 0xA9C4, symBinAddr: 0x10000D42C, symSize: 0x40 }
  - { offset: 0x389FB, size: 0x8, addend: 0x0, symName: __ZNSt3__122__compressed_pair_elemIPNS_12basic_stringIcNS_11char_traitsIcEENS_9allocatorIcEEEELi0ELb0EEC2B8ne180100IDnvEEOT_, symObjAddr: 0xAA04, symBinAddr: 0x10000D46C, symSize: 0x1C }
  - { offset: 0x38A3E, size: 0x8, addend: 0x0, symName: __ZNSt3__122__compressed_pair_elemINS_9allocatorINS_12basic_stringIcNS_11char_traitsIcEENS1_IcEEEEEELi1ELb1EEC2B8ne180100ENS_18__default_init_tagE, symObjAddr: 0xAA20, symBinAddr: 0x10000D488, symSize: 0x2C }
  - { offset: 0x38A73, size: 0x8, addend: 0x0, symName: __ZNSt3__19allocatorINS_12basic_stringIcNS_11char_traitsIcEENS0_IcEEEEEC2B8ne180100Ev, symObjAddr: 0xAA4C, symBinAddr: 0x10000D4B4, symSize: 0x2C }
  - { offset: 0x38A9D, size: 0x8, addend: 0x0, symName: __ZNSt3__116__non_trivial_ifILb1ENS_9allocatorINS_12basic_stringIcNS_11char_traitsIcEENS1_IcEEEEEEEC2B8ne180100Ev, symObjAddr: 0xAA78, symBinAddr: 0x10000D4E0, symSize: 0x14 }
  - { offset: 0x38AC7, size: 0x8, addend: 0x0, symName: __ZNSt3__128__exception_guard_exceptionsINS_6vectorINS_12basic_stringIcNS_11char_traitsIcEENS_9allocatorIcEEEENS5_IS7_EEE16__destroy_vectorEEC1B8ne180100ESA_, symObjAddr: 0xAA8C, symBinAddr: 0x10000D4F4, symSize: 0x34 }
  - { offset: 0x38B00, size: 0x8, addend: 0x0, symName: __ZNSt3__128__exception_guard_exceptionsINS_6vectorINS_12basic_stringIcNS_11char_traitsIcEENS_9allocatorIcEEEENS5_IS7_EEE16__destroy_vectorEEC2B8ne180100ESA_, symObjAddr: 0xAAC0, symBinAddr: 0x10000D528, symSize: 0x24 }
  - { offset: 0x38B39, size: 0x8, addend: 0x0, symName: __ZNSt3__16vectorINS_12basic_stringIcNS_11char_traitsIcEENS_9allocatorIcEEEENS4_IS6_EEE16__destroy_vectorC2B8ne180100ERS8_, symObjAddr: 0xAAE4, symBinAddr: 0x10000D54C, symSize: 0x20 }
  - { offset: 0x38B73, size: 0x8, addend: 0x0, symName: __ZNKSt3__16vectorINS_12basic_stringIcNS_11char_traitsIcEENS_9allocatorIcEEEENS4_IS6_EEE8max_sizeEv, symObjAddr: 0xAB04, symBinAddr: 0x10000D56C, symSize: 0x60 }
  - { offset: 0x38B9B, size: 0x8, addend: 0x0, symName: __ZNKSt3__16vectorINS_12basic_stringIcNS_11char_traitsIcEENS_9allocatorIcEEEENS4_IS6_EEE20__throw_length_errorB8ne180100Ev, symObjAddr: 0xAB64, symBinAddr: 0x10000D5CC, symSize: 0x1C }
  - { offset: 0x38BC1, size: 0x8, addend: 0x0, symName: __ZNSt3__16vectorINS_12basic_stringIcNS_11char_traitsIcEENS_9allocatorIcEEEENS4_IS6_EEE7__allocB8ne180100Ev, symObjAddr: 0xABC0, symBinAddr: 0x10000D628, symSize: 0x28 }
  - { offset: 0x38BE7, size: 0x8, addend: 0x0, symName: __ZNSt3__16vectorINS_12basic_stringIcNS_11char_traitsIcEENS_9allocatorIcEEEENS4_IS6_EEE9__end_capB8ne180100Ev, symObjAddr: 0xABE8, symBinAddr: 0x10000D650, symSize: 0x28 }
  - { offset: 0x38C0D, size: 0x8, addend: 0x0, symName: __ZNKSt3__16vectorINS_12basic_stringIcNS_11char_traitsIcEENS_9allocatorIcEEEENS4_IS6_EEE14__annotate_newB8ne180100Em, symObjAddr: 0xAC10, symBinAddr: 0x10000D678, symSize: 0x14 }
  - { offset: 0x38C4E, size: 0x8, addend: 0x0, symName: __ZNSt3__116allocator_traitsINS_9allocatorINS_12basic_stringIcNS_11char_traitsIcEENS1_IcEEEEEEE8max_sizeB8ne180100IS7_vEEmRKS7_, symObjAddr: 0xAC24, symBinAddr: 0x10000D68C, symSize: 0x24 }
  - { offset: 0x38C7D, size: 0x8, addend: 0x0, symName: __ZNKSt3__16vectorINS_12basic_stringIcNS_11char_traitsIcEENS_9allocatorIcEEEENS4_IS6_EEE7__allocB8ne180100Ev, symObjAddr: 0xAC48, symBinAddr: 0x10000D6B0, symSize: 0x28 }
  - { offset: 0x38CA3, size: 0x8, addend: 0x0, symName: __ZNKSt3__19allocatorINS_12basic_stringIcNS_11char_traitsIcEENS0_IcEEEEE8max_sizeB8ne180100Ev, symObjAddr: 0xAC70, symBinAddr: 0x10000D6D8, symSize: 0x18 }
  - { offset: 0x38CC9, size: 0x8, addend: 0x0, symName: __ZNKSt3__117__compressed_pairIPNS_12basic_stringIcNS_11char_traitsIcEENS_9allocatorIcEEEENS4_IS6_EEE6secondB8ne180100Ev, symObjAddr: 0xAC88, symBinAddr: 0x10000D6F0, symSize: 0x24 }
  - { offset: 0x38CEF, size: 0x8, addend: 0x0, symName: __ZNKSt3__122__compressed_pair_elemINS_9allocatorINS_12basic_stringIcNS_11char_traitsIcEENS1_IcEEEEEELi1ELb1EE5__getB8ne180100Ev, symObjAddr: 0xACAC, symBinAddr: 0x10000D714, symSize: 0x14 }
  - { offset: 0x38D15, size: 0x8, addend: 0x0, symName: __ZNSt3__19allocatorINS_12basic_stringIcNS_11char_traitsIcEENS0_IcEEEEE8allocateB8ne180100Em, symObjAddr: 0xACC0, symBinAddr: 0x10000D728, symSize: 0x5C }
  - { offset: 0x38D4A, size: 0x8, addend: 0x0, symName: __ZNSt3__117__compressed_pairIPNS_12basic_stringIcNS_11char_traitsIcEENS_9allocatorIcEEEENS4_IS6_EEE6secondB8ne180100Ev, symObjAddr: 0xAD1C, symBinAddr: 0x10000D784, symSize: 0x24 }
  - { offset: 0x38D70, size: 0x8, addend: 0x0, symName: __ZNSt3__122__compressed_pair_elemINS_9allocatorINS_12basic_stringIcNS_11char_traitsIcEENS1_IcEEEEEELi1ELb1EE5__getB8ne180100Ev, symObjAddr: 0xAD40, symBinAddr: 0x10000D7A8, symSize: 0x14 }
  - { offset: 0x38D96, size: 0x8, addend: 0x0, symName: __ZNSt3__117__compressed_pairIPNS_12basic_stringIcNS_11char_traitsIcEENS_9allocatorIcEEEENS4_IS6_EEE5firstB8ne180100Ev, symObjAddr: 0xAD54, symBinAddr: 0x10000D7BC, symSize: 0x24 }
  - { offset: 0x38DBC, size: 0x8, addend: 0x0, symName: __ZNSt3__122__compressed_pair_elemIPNS_12basic_stringIcNS_11char_traitsIcEENS_9allocatorIcEEEELi0ELb0EE5__getB8ne180100Ev, symObjAddr: 0xAD78, symBinAddr: 0x10000D7E0, symSize: 0x14 }
  - { offset: 0x38DFD, size: 0x8, addend: 0x0, symName: __ZNSt3__16vectorINS_12basic_stringIcNS_11char_traitsIcEENS_9allocatorIcEEEENS4_IS6_EEE21_ConstructTransactionC1B8ne180100ERS8_m, symObjAddr: 0xAD8C, symBinAddr: 0x10000D7F4, symSize: 0x3C }
  - { offset: 0x38E47, size: 0x8, addend: 0x0, symName: __ZNSt3__16vectorINS_12basic_stringIcNS_11char_traitsIcEENS_9allocatorIcEEEENS4_IS6_EEE21_ConstructTransactionD1B8ne180100Ev, symObjAddr: 0xAE48, symBinAddr: 0x10000D8B0, symSize: 0x2C }
  - { offset: 0x38E71, size: 0x8, addend: 0x0, symName: __ZNSt3__16vectorINS_12basic_stringIcNS_11char_traitsIcEENS_9allocatorIcEEEENS4_IS6_EEE21_ConstructTransactionC2B8ne180100ERS8_m, symObjAddr: 0xAE74, symBinAddr: 0x10000D8DC, symSize: 0x4C }
  - { offset: 0x38EDD, size: 0x8, addend: 0x0, symName: __ZNSt3__14pairIPKNS_12basic_stringIcNS_11char_traitsIcEENS_9allocatorIcEEEES8_EC1B8ne180100IS8_S8_Li0EEEOT_OT0_, symObjAddr: 0xB0D0, symBinAddr: 0x10000DB38, symSize: 0x3C }
  - { offset: 0x38F3D, size: 0x8, addend: 0x0, symName: __ZNSt3__14pairIPKNS_12basic_stringIcNS_11char_traitsIcEENS_9allocatorIcEEEES8_EC2B8ne180100IS8_S8_Li0EEEOT_OT0_, symObjAddr: 0xB10C, symBinAddr: 0x10000DB74, symSize: 0x34 }
  - { offset: 0x38F9D, size: 0x8, addend: 0x0, symName: __ZNSt3__118__unwrap_iter_implIPKNS_12basic_stringIcNS_11char_traitsIcEENS_9allocatorIcEEEELb1EE8__unwrapB8ne180100ES8_, symObjAddr: 0xB140, symBinAddr: 0x10000DBA8, symSize: 0x24 }
  - { offset: 0x38FC1, size: 0x8, addend: 0x0, symName: __ZNSt3__129_AllocatorDestroyRangeReverseINS_9allocatorINS_12basic_stringIcNS_11char_traitsIcEENS1_IcEEEEEEPS6_EC1B8ne180100ERS7_RS8_SB_, symObjAddr: 0xB1C4, symBinAddr: 0x10000DC2C, symSize: 0x44 }
  - { offset: 0x3901B, size: 0x8, addend: 0x0, symName: __ZNSt3__116allocator_traitsINS_9allocatorINS_12basic_stringIcNS_11char_traitsIcEENS1_IcEEEEEEE9constructB8ne180100IS6_JRKS6_EvEEvRS7_PT_DpOT0_, symObjAddr: 0xB208, symBinAddr: 0x10000DC70, symSize: 0x34 }
  - { offset: 0x39075, size: 0x8, addend: 0x0, symName: __ZNSt3__128__exception_guard_exceptionsINS_29_AllocatorDestroyRangeReverseINS_9allocatorINS_12basic_stringIcNS_11char_traitsIcEENS2_IcEEEEEEPS7_EEE10__completeB8ne180100Ev, symObjAddr: 0xB250, symBinAddr: 0x10000DCB8, symSize: 0x1C }
  - { offset: 0x3909B, size: 0x8, addend: 0x0, symName: __ZNSt3__128__exception_guard_exceptionsINS_29_AllocatorDestroyRangeReverseINS_9allocatorINS_12basic_stringIcNS_11char_traitsIcEENS2_IcEEEEEEPS7_EEED1B8ne180100Ev, symObjAddr: 0xB26C, symBinAddr: 0x10000DCD4, symSize: 0x2C }
  - { offset: 0x390C5, size: 0x8, addend: 0x0, symName: __ZNSt3__128__exception_guard_exceptionsINS_29_AllocatorDestroyRangeReverseINS_9allocatorINS_12basic_stringIcNS_11char_traitsIcEENS2_IcEEEEEEPS7_EEEC1B8ne180100ESA_, symObjAddr: 0xB298, symBinAddr: 0x10000DD00, symSize: 0x34 }
  - { offset: 0x390FF, size: 0x8, addend: 0x0, symName: __ZNSt3__128__exception_guard_exceptionsINS_29_AllocatorDestroyRangeReverseINS_9allocatorINS_12basic_stringIcNS_11char_traitsIcEENS2_IcEEEEEEPS7_EEEC2B8ne180100ESA_, symObjAddr: 0xB2CC, symBinAddr: 0x10000DD34, symSize: 0x30 }
  - { offset: 0x39139, size: 0x8, addend: 0x0, symName: __ZNSt3__129_AllocatorDestroyRangeReverseINS_9allocatorINS_12basic_stringIcNS_11char_traitsIcEENS1_IcEEEEEEPS6_EC2B8ne180100ERS7_RS8_SB_, symObjAddr: 0xB2FC, symBinAddr: 0x10000DD64, symSize: 0x38 }
  - { offset: 0x39193, size: 0x8, addend: 0x0, symName: __ZNSt3__19allocatorINS_12basic_stringIcNS_11char_traitsIcEENS0_IcEEEEE9constructB8ne180100IS5_JRKS5_EEEvPT_DpOT0_, symObjAddr: 0xB334, symBinAddr: 0x10000DD9C, symSize: 0x30 }
  - { offset: 0x391EB, size: 0x8, addend: 0x0, symName: __ZNSt3__128__exception_guard_exceptionsINS_29_AllocatorDestroyRangeReverseINS_9allocatorINS_12basic_stringIcNS_11char_traitsIcEENS2_IcEEEEEEPS7_EEED2B8ne180100Ev, symObjAddr: 0xB364, symBinAddr: 0x10000DDCC, symSize: 0x50 }
  - { offset: 0x39215, size: 0x8, addend: 0x0, symName: __ZNKSt3__129_AllocatorDestroyRangeReverseINS_9allocatorINS_12basic_stringIcNS_11char_traitsIcEENS1_IcEEEEEEPS6_EclB8ne180100Ev, symObjAddr: 0xB3B4, symBinAddr: 0x10000DE1C, symSize: 0x68 }
  - { offset: 0x3923B, size: 0x8, addend: 0x0, symName: __ZNSt3__116reverse_iteratorIPNS_12basic_stringIcNS_11char_traitsIcEENS_9allocatorIcEEEEEC1B8ne180100ES7_, symObjAddr: 0xB48C, symBinAddr: 0x10000DEF4, symSize: 0x34 }
  - { offset: 0x39274, size: 0x8, addend: 0x0, symName: __ZNSt3__116allocator_traitsINS_9allocatorINS_12basic_stringIcNS_11char_traitsIcEENS1_IcEEEEEEE7destroyB8ne180100IS6_vEEvRS7_PT_, symObjAddr: 0xB508, symBinAddr: 0x10000DF70, symSize: 0x2C }
  - { offset: 0x392B3, size: 0x8, addend: 0x0, symName: __ZNSt3__116reverse_iteratorIPNS_12basic_stringIcNS_11char_traitsIcEENS_9allocatorIcEEEEEppB8ne180100Ev, symObjAddr: 0xB558, symBinAddr: 0x10000DFC0, symSize: 0x20 }
  - { offset: 0x392D9, size: 0x8, addend: 0x0, symName: __ZNKSt3__116reverse_iteratorIPNS_12basic_stringIcNS_11char_traitsIcEENS_9allocatorIcEEEEE4baseB8ne180100Ev, symObjAddr: 0xB578, symBinAddr: 0x10000DFE0, symSize: 0x18 }
  - { offset: 0x392FF, size: 0x8, addend: 0x0, symName: __ZNSt3__19allocatorINS_12basic_stringIcNS_11char_traitsIcEENS0_IcEEEEE7destroyB8ne180100EPS5_, symObjAddr: 0xB590, symBinAddr: 0x10000DFF8, symSize: 0x28 }
  - { offset: 0x3933A, size: 0x8, addend: 0x0, symName: __ZNSt3__119__to_address_helperINS_16reverse_iteratorIPNS_12basic_stringIcNS_11char_traitsIcEENS_9allocatorIcEEEEEEvE6__callB8ne180100ERKS9_, symObjAddr: 0xB5B8, symBinAddr: 0x10000E020, symSize: 0x38 }
  - { offset: 0x3935E, size: 0x8, addend: 0x0, symName: __ZNKSt3__116reverse_iteratorIPNS_12basic_stringIcNS_11char_traitsIcEENS_9allocatorIcEEEEEptB8ne180100Ev, symObjAddr: 0xB5F0, symBinAddr: 0x10000E058, symSize: 0x24 }
  - { offset: 0x39384, size: 0x8, addend: 0x0, symName: __ZNKSt3__116reverse_iteratorIPNS_12basic_stringIcNS_11char_traitsIcEENS_9allocatorIcEEEEEdeB8ne180100Ev, symObjAddr: 0xB614, symBinAddr: 0x10000E07C, symSize: 0x28 }
  - { offset: 0x393B9, size: 0x8, addend: 0x0, symName: __ZNSt3__116reverse_iteratorIPNS_12basic_stringIcNS_11char_traitsIcEENS_9allocatorIcEEEEEC2B8ne180100ES7_, symObjAddr: 0xB63C, symBinAddr: 0x10000E0A4, symSize: 0x28 }
  - { offset: 0x393F2, size: 0x8, addend: 0x0, symName: __ZNSt3__118__unwrap_iter_implIPNS_12basic_stringIcNS_11char_traitsIcEENS_9allocatorIcEEEELb1EE8__unwrapB8ne180100ES7_, symObjAddr: 0xB664, symBinAddr: 0x10000E0CC, symSize: 0x24 }
  - { offset: 0x39416, size: 0x8, addend: 0x0, symName: __ZNSt3__118__unwrap_iter_implIPNS_12basic_stringIcNS_11char_traitsIcEENS_9allocatorIcEEEELb1EE8__rewrapB8ne180100ES7_S7_, symObjAddr: 0xB688, symBinAddr: 0x10000E0F0, symSize: 0x58 }
  - { offset: 0x39449, size: 0x8, addend: 0x0, symName: __ZNSt3__16vectorINS_12basic_stringIcNS_11char_traitsIcEENS_9allocatorIcEEEENS4_IS6_EEE21_ConstructTransactionD2B8ne180100Ev, symObjAddr: 0xB6E0, symBinAddr: 0x10000E148, symSize: 0x20 }
  - { offset: 0x39473, size: 0x8, addend: 0x0, symName: __ZNSt3__128__exception_guard_exceptionsINS_6vectorINS_12basic_stringIcNS_11char_traitsIcEENS_9allocatorIcEEEENS5_IS7_EEE16__destroy_vectorEED2B8ne180100Ev, symObjAddr: 0xB700, symBinAddr: 0x10000E168, symSize: 0x50 }
  - { offset: 0x3949D, size: 0x8, addend: 0x0, symName: __ZNSt3__16vectorINS_12basic_stringIcNS_11char_traitsIcEENS_9allocatorIcEEEENS4_IS6_EEE16__destroy_vectorclB8ne180100Ev, symObjAddr: 0xB750, symBinAddr: 0x10000E1B8, symSize: 0x90 }
  - { offset: 0x394C3, size: 0x8, addend: 0x0, symName: __ZNSt3__16vectorINS_12basic_stringIcNS_11char_traitsIcEENS_9allocatorIcEEEENS4_IS6_EEE7__clearB8ne180100Ev, symObjAddr: 0xB7E0, symBinAddr: 0x10000E248, symSize: 0x28 }
  - { offset: 0x394E9, size: 0x8, addend: 0x0, symName: __ZNKSt3__16vectorINS_12basic_stringIcNS_11char_traitsIcEENS_9allocatorIcEEEENS4_IS6_EEE17__annotate_deleteB8ne180100Ev, symObjAddr: 0xB808, symBinAddr: 0x10000E270, symSize: 0x10 }
  - { offset: 0x3950F, size: 0x8, addend: 0x0, symName: __ZNSt3__116allocator_traitsINS_9allocatorINS_12basic_stringIcNS_11char_traitsIcEENS1_IcEEEEEEE10deallocateB8ne180100ERS7_PS6_m, symObjAddr: 0xB818, symBinAddr: 0x10000E280, symSize: 0x34 }
  - { offset: 0x39554, size: 0x8, addend: 0x0, symName: __ZNKSt3__16vectorINS_12basic_stringIcNS_11char_traitsIcEENS_9allocatorIcEEEENS4_IS6_EEE8capacityB8ne180100Ev, symObjAddr: 0xB84C, symBinAddr: 0x10000E2B4, symSize: 0x40 }
  - { offset: 0x3957A, size: 0x8, addend: 0x0, symName: __ZNSt3__16vectorINS_12basic_stringIcNS_11char_traitsIcEENS_9allocatorIcEEEENS4_IS6_EEE22__base_destruct_at_endB8ne180100EPS6_, symObjAddr: 0xB88C, symBinAddr: 0x10000E2F4, symSize: 0x8C }
  - { offset: 0x395C0, size: 0x8, addend: 0x0, symName: __ZNSt3__19allocatorINS_12basic_stringIcNS_11char_traitsIcEENS0_IcEEEEE10deallocateB8ne180100EPS5_m, symObjAddr: 0xB918, symBinAddr: 0x10000E380, symSize: 0x44 }
  - { offset: 0x39604, size: 0x8, addend: 0x0, symName: __ZNKSt3__16vectorINS_12basic_stringIcNS_11char_traitsIcEENS_9allocatorIcEEEENS4_IS6_EEE9__end_capB8ne180100Ev, symObjAddr: 0xB95C, symBinAddr: 0x10000E3C4, symSize: 0x28 }
  - { offset: 0x3962A, size: 0x8, addend: 0x0, symName: __ZNKSt3__117__compressed_pairIPNS_12basic_stringIcNS_11char_traitsIcEENS_9allocatorIcEEEENS4_IS6_EEE5firstB8ne180100Ev, symObjAddr: 0xB984, symBinAddr: 0x10000E3EC, symSize: 0x24 }
  - { offset: 0x39650, size: 0x8, addend: 0x0, symName: __ZNKSt3__122__compressed_pair_elemIPNS_12basic_stringIcNS_11char_traitsIcEENS_9allocatorIcEEEELi0ELb0EE5__getB8ne180100Ev, symObjAddr: 0xB9A8, symBinAddr: 0x10000E410, symSize: 0x14 }
  - { offset: 0x39676, size: 0x8, addend: 0x0, symName: __ZNSt3__16vectorINS_12basic_stringIcNS_11char_traitsIcEENS_9allocatorIcEEEENS4_IS6_EEED2B8ne180100Ev, symObjAddr: 0xB9BC, symBinAddr: 0x10000E424, symSize: 0x40 }
  - { offset: 0x396A0, size: 0x8, addend: 0x0, symName: __ZNSt3__16vectorIN2sf14RectangleShapeENS_9allocatorIS2_EEEC2B8ne180100Ev, symObjAddr: 0xB9FC, symBinAddr: 0x10000E464, symSize: 0x4C }
  - { offset: 0x396CA, size: 0x8, addend: 0x0, symName: __ZNSt3__117__compressed_pairIPN2sf14RectangleShapeENS_9allocatorIS2_EEEC1B8ne180100IDnNS_18__default_init_tagEEEOT_OT0_, symObjAddr: 0xBA48, symBinAddr: 0x10000E4B0, symSize: 0x3C }
  - { offset: 0x39724, size: 0x8, addend: 0x0, symName: __ZNSt3__117__compressed_pairIPN2sf14RectangleShapeENS_9allocatorIS2_EEEC2B8ne180100IDnNS_18__default_init_tagEEEOT_OT0_, symObjAddr: 0xBA84, symBinAddr: 0x10000E4EC, symSize: 0x40 }
  - { offset: 0x3977E, size: 0x8, addend: 0x0, symName: __ZNSt3__122__compressed_pair_elemIPN2sf14RectangleShapeELi0ELb0EEC2B8ne180100IDnvEEOT_, symObjAddr: 0xBAC4, symBinAddr: 0x10000E52C, symSize: 0x1C }
  - { offset: 0x397C1, size: 0x8, addend: 0x0, symName: __ZNSt3__122__compressed_pair_elemINS_9allocatorIN2sf14RectangleShapeEEELi1ELb1EEC2B8ne180100ENS_18__default_init_tagE, symObjAddr: 0xBAE0, symBinAddr: 0x10000E548, symSize: 0x2C }
  - { offset: 0x397F6, size: 0x8, addend: 0x0, symName: __ZNSt3__19allocatorIN2sf14RectangleShapeEEC2B8ne180100Ev, symObjAddr: 0xBB0C, symBinAddr: 0x10000E574, symSize: 0x2C }
  - { offset: 0x39820, size: 0x8, addend: 0x0, symName: __ZNSt3__116__non_trivial_ifILb1ENS_9allocatorIN2sf14RectangleShapeEEEEC2B8ne180100Ev, symObjAddr: 0xBB38, symBinAddr: 0x10000E5A0, symSize: 0x14 }
  - { offset: 0x3984A, size: 0x8, addend: 0x0, symName: __ZNSt3__16vectorIN2sf14RectangleShapeENS_9allocatorIS2_EEED2B8ne180100Ev, symObjAddr: 0xBB4C, symBinAddr: 0x10000E5B4, symSize: 0x44 }
  - { offset: 0x39874, size: 0x8, addend: 0x0, symName: __ZNSt3__16vectorIN2sf14RectangleShapeENS_9allocatorIS2_EEE16__destroy_vectorC1B8ne180100ERS5_, symObjAddr: 0xBB90, symBinAddr: 0x10000E5F8, symSize: 0x34 }
  - { offset: 0x398AE, size: 0x8, addend: 0x0, symName: __ZNSt3__16vectorIN2sf14RectangleShapeENS_9allocatorIS2_EEE16__destroy_vectorclB8ne180100Ev, symObjAddr: 0xBBC4, symBinAddr: 0x10000E62C, symSize: 0x90 }
  - { offset: 0x398D4, size: 0x8, addend: 0x0, symName: __ZNSt3__16vectorIN2sf14RectangleShapeENS_9allocatorIS2_EEE16__destroy_vectorC2B8ne180100ERS5_, symObjAddr: 0xBC54, symBinAddr: 0x10000E6BC, symSize: 0x20 }
  - { offset: 0x3990E, size: 0x8, addend: 0x0, symName: __ZNSt3__16vectorIN2sf14RectangleShapeENS_9allocatorIS2_EEE7__clearB8ne180100Ev, symObjAddr: 0xBC74, symBinAddr: 0x10000E6DC, symSize: 0x28 }
  - { offset: 0x39934, size: 0x8, addend: 0x0, symName: __ZNKSt3__16vectorIN2sf14RectangleShapeENS_9allocatorIS2_EEE17__annotate_deleteB8ne180100Ev, symObjAddr: 0xBC9C, symBinAddr: 0x10000E704, symSize: 0x10 }
  - { offset: 0x3995A, size: 0x8, addend: 0x0, symName: __ZNSt3__116allocator_traitsINS_9allocatorIN2sf14RectangleShapeEEEE10deallocateB8ne180100ERS4_PS3_m, symObjAddr: 0xBCAC, symBinAddr: 0x10000E714, symSize: 0x34 }
  - { offset: 0x3999F, size: 0x8, addend: 0x0, symName: __ZNSt3__16vectorIN2sf14RectangleShapeENS_9allocatorIS2_EEE7__allocB8ne180100Ev, symObjAddr: 0xBCE0, symBinAddr: 0x10000E748, symSize: 0x28 }
  - { offset: 0x399C5, size: 0x8, addend: 0x0, symName: __ZNKSt3__16vectorIN2sf14RectangleShapeENS_9allocatorIS2_EEE8capacityB8ne180100Ev, symObjAddr: 0xBD08, symBinAddr: 0x10000E770, symSize: 0x40 }
  - { offset: 0x399EB, size: 0x8, addend: 0x0, symName: __ZNSt3__16vectorIN2sf14RectangleShapeENS_9allocatorIS2_EEE22__base_destruct_at_endB8ne180100EPS2_, symObjAddr: 0xBD48, symBinAddr: 0x10000E7B0, symSize: 0x8C }
  - { offset: 0x39A31, size: 0x8, addend: 0x0, symName: __ZNSt3__116allocator_traitsINS_9allocatorIN2sf14RectangleShapeEEEE7destroyB8ne180100IS3_vEEvRS4_PT_, symObjAddr: 0xBDD4, symBinAddr: 0x10000E83C, symSize: 0x2C }
  - { offset: 0x39A70, size: 0x8, addend: 0x0, symName: __ZNSt3__19allocatorIN2sf14RectangleShapeEE7destroyB8ne180100EPS2_, symObjAddr: 0xBE14, symBinAddr: 0x10000E87C, symSize: 0x30 }
  - { offset: 0x39AA5, size: 0x8, addend: 0x0, symName: __ZNSt3__19allocatorIN2sf14RectangleShapeEE10deallocateB8ne180100EPS2_m, symObjAddr: 0xBE44, symBinAddr: 0x10000E8AC, symSize: 0x44 }
  - { offset: 0x39AE9, size: 0x8, addend: 0x0, symName: __ZNSt3__117__compressed_pairIPN2sf14RectangleShapeENS_9allocatorIS2_EEE6secondB8ne180100Ev, symObjAddr: 0xBE88, symBinAddr: 0x10000E8F0, symSize: 0x24 }
  - { offset: 0x39B0F, size: 0x8, addend: 0x0, symName: __ZNSt3__122__compressed_pair_elemINS_9allocatorIN2sf14RectangleShapeEEELi1ELb1EE5__getB8ne180100Ev, symObjAddr: 0xBEAC, symBinAddr: 0x10000E914, symSize: 0x14 }
  - { offset: 0x39B35, size: 0x8, addend: 0x0, symName: __ZNKSt3__16vectorIN2sf14RectangleShapeENS_9allocatorIS2_EEE9__end_capB8ne180100Ev, symObjAddr: 0xBEC0, symBinAddr: 0x10000E928, symSize: 0x28 }
  - { offset: 0x39B5B, size: 0x8, addend: 0x0, symName: __ZNKSt3__117__compressed_pairIPN2sf14RectangleShapeENS_9allocatorIS2_EEE5firstB8ne180100Ev, symObjAddr: 0xBEE8, symBinAddr: 0x10000E950, symSize: 0x24 }
  - { offset: 0x39B81, size: 0x8, addend: 0x0, symName: __ZNKSt3__122__compressed_pair_elemIPN2sf14RectangleShapeELi0ELb0EE5__getB8ne180100Ev, symObjAddr: 0xBF0C, symBinAddr: 0x10000E974, symSize: 0x14 }
  - { offset: 0x39BA7, size: 0x8, addend: 0x0, symName: __ZNKSt3__112basic_stringIcNS_11char_traitsIcEENS_9allocatorIcEEE15__get_long_sizeB8ne180100Ev, symObjAddr: 0xBF20, symBinAddr: 0x10000E988, symSize: 0x28 }
  - { offset: 0x39BCD, size: 0x8, addend: 0x0, symName: __ZNKSt3__112basic_stringIcNS_11char_traitsIcEENS_9allocatorIcEEE16__get_short_sizeB8ne180100Ev, symObjAddr: 0xBF48, symBinAddr: 0x10000E9B0, symSize: 0x34 }
  - { offset: 0x39BF3, size: 0x8, addend: 0x0, symName: __ZNSt3__16vectorIN2sf14RectangleShapeENS_9allocatorIS2_EEE9__end_capB8ne180100Ev, symObjAddr: 0xBF7C, symBinAddr: 0x10000E9E4, symSize: 0x28 }
  - { offset: 0x39C19, size: 0x8, addend: 0x0, symName: __ZNSt3__16vectorIN2sf14RectangleShapeENS_9allocatorIS2_EEE22__construct_one_at_endB8ne180100IJRKS2_EEEvDpOT_, symObjAddr: 0xBFA4, symBinAddr: 0x10000EA0C, symSize: 0x90 }
  - { offset: 0x39C6A, size: 0x8, addend: 0x0, symName: __ZNSt3__16vectorIN2sf14RectangleShapeENS_9allocatorIS2_EEE21__push_back_slow_pathIRKS2_EEPS2_OT_, symObjAddr: 0xC034, symBinAddr: 0x10000EA9C, symSize: 0xE8 }
  - { offset: 0x39CCB, size: 0x8, addend: 0x0, symName: __ZNSt3__117__compressed_pairIPN2sf14RectangleShapeENS_9allocatorIS2_EEE5firstB8ne180100Ev, symObjAddr: 0xC11C, symBinAddr: 0x10000EB84, symSize: 0x24 }
  - { offset: 0x39CF1, size: 0x8, addend: 0x0, symName: __ZNSt3__122__compressed_pair_elemIPN2sf14RectangleShapeELi0ELb0EE5__getB8ne180100Ev, symObjAddr: 0xC140, symBinAddr: 0x10000EBA8, symSize: 0x14 }
  - { offset: 0x39D32, size: 0x8, addend: 0x0, symName: __ZNSt3__16vectorIN2sf14RectangleShapeENS_9allocatorIS2_EEE21_ConstructTransactionC1B8ne180100ERS5_m, symObjAddr: 0xC154, symBinAddr: 0x10000EBBC, symSize: 0x3C }
  - { offset: 0x39D7C, size: 0x8, addend: 0x0, symName: __ZNSt3__116allocator_traitsINS_9allocatorIN2sf14RectangleShapeEEEE9constructB8ne180100IS3_JRKS3_EvEEvRS4_PT_DpOT0_, symObjAddr: 0xC190, symBinAddr: 0x10000EBF8, symSize: 0x34 }
  - { offset: 0x39DD6, size: 0x8, addend: 0x0, symName: __ZNSt3__16vectorIN2sf14RectangleShapeENS_9allocatorIS2_EEE21_ConstructTransactionD1B8ne180100Ev, symObjAddr: 0xC1C4, symBinAddr: 0x10000EC2C, symSize: 0x2C }
  - { offset: 0x39E00, size: 0x8, addend: 0x0, symName: __ZNSt3__16vectorIN2sf14RectangleShapeENS_9allocatorIS2_EEE21_ConstructTransactionC2B8ne180100ERS5_m, symObjAddr: 0xC1F0, symBinAddr: 0x10000EC58, symSize: 0x4C }
  - { offset: 0x39E4A, size: 0x8, addend: 0x0, symName: __ZNSt3__19allocatorIN2sf14RectangleShapeEE9constructB8ne180100IS2_JRKS2_EEEvPT_DpOT0_, symObjAddr: 0xC23C, symBinAddr: 0x10000ECA4, symSize: 0x30 }
  - { offset: 0x39EA2, size: 0x8, addend: 0x0, symName: __ZN2sf14RectangleShapeC1ERKS0_, symObjAddr: 0xC26C, symBinAddr: 0x10000ECD4, symSize: 0x34 }
  - { offset: 0x39ED7, size: 0x8, addend: 0x0, symName: __ZN2sf14RectangleShapeC2ERKS0_, symObjAddr: 0xC2A0, symBinAddr: 0x10000ED08, symSize: 0x58 }
  - { offset: 0x39F12, size: 0x8, addend: 0x0, symName: __ZN2sf5ShapeC2ERKS0_, symObjAddr: 0xC2F8, symBinAddr: 0x10000ED60, symSize: 0x11C }
  - { offset: 0x39F4D, size: 0x8, addend: 0x0, symName: __ZN2sf11VertexArrayC1ERKS0_, symObjAddr: 0xC414, symBinAddr: 0x10000EE7C, symSize: 0x34 }
  - { offset: 0x39F82, size: 0x8, addend: 0x0, symName: __ZN2sf11VertexArrayC2ERKS0_, symObjAddr: 0xC448, symBinAddr: 0x10000EEB0, symSize: 0x8C }
  - { offset: 0x39FB7, size: 0x8, addend: 0x0, symName: __ZNSt3__16vectorIN2sf6VertexENS_9allocatorIS2_EEEC1ERKS5_, symObjAddr: 0xC4D4, symBinAddr: 0x10000EF3C, symSize: 0x34 }
  - { offset: 0x39FF3, size: 0x8, addend: 0x0, symName: __ZNSt3__16vectorIN2sf6VertexENS_9allocatorIS2_EEEC2ERKS5_, symObjAddr: 0xC508, symBinAddr: 0x10000EF70, symSize: 0x94 }
  - { offset: 0x3A03A, size: 0x8, addend: 0x0, symName: __ZNSt3__116allocator_traitsINS_9allocatorIN2sf6VertexEEEE37select_on_container_copy_constructionB8ne180100IS4_vvEES4_RKS4_, symObjAddr: 0xC59C, symBinAddr: 0x10000F004, symSize: 0x10 }
  - { offset: 0x3A06A, size: 0x8, addend: 0x0, symName: __ZNKSt3__16vectorIN2sf6VertexENS_9allocatorIS2_EEE7__allocB8ne180100Ev, symObjAddr: 0xC5AC, symBinAddr: 0x10000F014, symSize: 0x28 }
  - { offset: 0x3A096, size: 0x8, addend: 0x0, symName: __ZNSt3__117__compressed_pairIPN2sf6VertexENS_9allocatorIS2_EEEC1B8ne180100IDnS5_EEOT_OT0_, symObjAddr: 0xC5D4, symBinAddr: 0x10000F03C, symSize: 0x3C }
  - { offset: 0x3A0F0, size: 0x8, addend: 0x0, symName: __ZNSt3__16vectorIN2sf6VertexENS_9allocatorIS2_EEE16__init_with_sizeB8ne180100IPS2_S7_EEvT_T0_m, symObjAddr: 0xC610, symBinAddr: 0x10000F078, symSize: 0xB8 }
  - { offset: 0x3A168, size: 0x8, addend: 0x0, symName: __ZNKSt3__16vectorIN2sf6VertexENS_9allocatorIS2_EEE4sizeB8ne180100Ev, symObjAddr: 0xC6C8, symBinAddr: 0x10000F130, symSize: 0x28 }
  - { offset: 0x3A18E, size: 0x8, addend: 0x0, symName: __ZNKSt3__117__compressed_pairIPN2sf6VertexENS_9allocatorIS2_EEE6secondB8ne180100Ev, symObjAddr: 0xC6F0, symBinAddr: 0x10000F158, symSize: 0x24 }
  - { offset: 0x3A1B4, size: 0x8, addend: 0x0, symName: __ZNKSt3__122__compressed_pair_elemINS_9allocatorIN2sf6VertexEEELi1ELb1EE5__getB8ne180100Ev, symObjAddr: 0xC714, symBinAddr: 0x10000F17C, symSize: 0x14 }
  - { offset: 0x3A1DA, size: 0x8, addend: 0x0, symName: __ZNSt3__117__compressed_pairIPN2sf6VertexENS_9allocatorIS2_EEEC2B8ne180100IDnS5_EEOT_OT0_, symObjAddr: 0xC728, symBinAddr: 0x10000F190, symSize: 0x44 }
  - { offset: 0x3A234, size: 0x8, addend: 0x0, symName: __ZNSt3__122__compressed_pair_elemIPN2sf6VertexELi0ELb0EEC2B8ne180100IDnvEEOT_, symObjAddr: 0xC76C, symBinAddr: 0x10000F1D4, symSize: 0x1C }
  - { offset: 0x3A277, size: 0x8, addend: 0x0, symName: __ZNSt3__122__compressed_pair_elemINS_9allocatorIN2sf6VertexEEELi1ELb1EEC2B8ne180100IS4_vEEOT_, symObjAddr: 0xC788, symBinAddr: 0x10000F1F0, symSize: 0x18 }
  - { offset: 0x3A2BA, size: 0x8, addend: 0x0, symName: __ZNSt3__16vectorIN2sf6VertexENS_9allocatorIS2_EEE11__vallocateB8ne180100Em, symObjAddr: 0xC7E0, symBinAddr: 0x10000F248, symSize: 0xB4 }
  - { offset: 0x3A300, size: 0x8, addend: 0x0, symName: __ZNSt3__16vectorIN2sf6VertexENS_9allocatorIS2_EEE18__construct_at_endIPS2_S7_EEvT_T0_m, symObjAddr: 0xC894, symBinAddr: 0x10000F2FC, symSize: 0x8C }
  - { offset: 0x3A37A, size: 0x8, addend: 0x0, symName: __ZNSt3__128__exception_guard_exceptionsINS_6vectorIN2sf6VertexENS_9allocatorIS3_EEE16__destroy_vectorEE10__completeB8ne180100Ev, symObjAddr: 0xC920, symBinAddr: 0x10000F388, symSize: 0x1C }
  - { offset: 0x3A3A0, size: 0x8, addend: 0x0, symName: __ZNSt3__128__exception_guard_exceptionsINS_6vectorIN2sf6VertexENS_9allocatorIS3_EEE16__destroy_vectorEED1B8ne180100Ev, symObjAddr: 0xC93C, symBinAddr: 0x10000F3A4, symSize: 0x2C }
  - { offset: 0x3A3CA, size: 0x8, addend: 0x0, symName: __ZNSt3__128__exception_guard_exceptionsINS_6vectorIN2sf6VertexENS_9allocatorIS3_EEE16__destroy_vectorEEC1B8ne180100ES7_, symObjAddr: 0xC968, symBinAddr: 0x10000F3D0, symSize: 0x34 }
  - { offset: 0x3A403, size: 0x8, addend: 0x0, symName: __ZNSt3__128__exception_guard_exceptionsINS_6vectorIN2sf6VertexENS_9allocatorIS3_EEE16__destroy_vectorEEC2B8ne180100ES7_, symObjAddr: 0xC99C, symBinAddr: 0x10000F404, symSize: 0x24 }
  - { offset: 0x3A43C, size: 0x8, addend: 0x0, symName: __ZNKSt3__16vectorIN2sf6VertexENS_9allocatorIS2_EEE8max_sizeEv, symObjAddr: 0xC9C0, symBinAddr: 0x10000F428, symSize: 0x60 }
  - { offset: 0x3A464, size: 0x8, addend: 0x0, symName: __ZNKSt3__16vectorIN2sf6VertexENS_9allocatorIS2_EEE20__throw_length_errorB8ne180100Ev, symObjAddr: 0xCA20, symBinAddr: 0x10000F488, symSize: 0x1C }
  - { offset: 0x3A48A, size: 0x8, addend: 0x0, symName: __ZNSt3__16vectorIN2sf6VertexENS_9allocatorIS2_EEE9__end_capB8ne180100Ev, symObjAddr: 0xCA7C, symBinAddr: 0x10000F4E4, symSize: 0x28 }
  - { offset: 0x3A4B0, size: 0x8, addend: 0x0, symName: __ZNKSt3__16vectorIN2sf6VertexENS_9allocatorIS2_EEE14__annotate_newB8ne180100Em, symObjAddr: 0xCAA4, symBinAddr: 0x10000F50C, symSize: 0x14 }
  - { offset: 0x3A4E6, size: 0x8, addend: 0x0, symName: __ZNSt3__116allocator_traitsINS_9allocatorIN2sf6VertexEEEE8max_sizeB8ne180100IS4_vEEmRKS4_, symObjAddr: 0xCAB8, symBinAddr: 0x10000F520, symSize: 0x24 }
  - { offset: 0x3A515, size: 0x8, addend: 0x0, symName: __ZNKSt3__19allocatorIN2sf6VertexEE8max_sizeB8ne180100Ev, symObjAddr: 0xCADC, symBinAddr: 0x10000F544, symSize: 0x18 }
  - { offset: 0x3A53B, size: 0x8, addend: 0x0, symName: __ZNSt3__19allocatorIN2sf6VertexEE8allocateB8ne180100Em, symObjAddr: 0xCAF4, symBinAddr: 0x10000F55C, symSize: 0x5C }
  - { offset: 0x3A570, size: 0x8, addend: 0x0, symName: __ZNSt3__117__compressed_pairIPN2sf6VertexENS_9allocatorIS2_EEE5firstB8ne180100Ev, symObjAddr: 0xCB50, symBinAddr: 0x10000F5B8, symSize: 0x24 }
  - { offset: 0x3A596, size: 0x8, addend: 0x0, symName: __ZNSt3__122__compressed_pair_elemIPN2sf6VertexELi0ELb0EE5__getB8ne180100Ev, symObjAddr: 0xCB74, symBinAddr: 0x10000F5DC, symSize: 0x14 }
  - { offset: 0x3A5D7, size: 0x8, addend: 0x0, symName: __ZNSt3__16vectorIN2sf6VertexENS_9allocatorIS2_EEE21_ConstructTransactionC1B8ne180100ERS5_m, symObjAddr: 0xCB88, symBinAddr: 0x10000F5F0, symSize: 0x3C }
  - { offset: 0x3A621, size: 0x8, addend: 0x0, symName: __ZNSt3__16vectorIN2sf6VertexENS_9allocatorIS2_EEE21_ConstructTransactionD1B8ne180100Ev, symObjAddr: 0xCC44, symBinAddr: 0x10000F6AC, symSize: 0x2C }
  - { offset: 0x3A64B, size: 0x8, addend: 0x0, symName: __ZNSt3__16vectorIN2sf6VertexENS_9allocatorIS2_EEE21_ConstructTransactionC2B8ne180100ERS5_m, symObjAddr: 0xCC70, symBinAddr: 0x10000F6D8, symSize: 0x4C }
  - { offset: 0x3A6B7, size: 0x8, addend: 0x0, symName: __ZNSt3__14pairIPN2sf6VertexES3_EC1B8ne180100IS3_S3_Li0EEEOT_OT0_, symObjAddr: 0xCDEC, symBinAddr: 0x10000F854, symSize: 0x3C }
  - { offset: 0x3A717, size: 0x8, addend: 0x0, symName: __ZNSt3__14pairIPN2sf6VertexES3_EC2B8ne180100IS3_S3_Li0EEEOT_OT0_, symObjAddr: 0xCE28, symBinAddr: 0x10000F890, symSize: 0x34 }
  - { offset: 0x3A781, size: 0x8, addend: 0x0, symName: __ZNKSt3__114__copy_trivialclB8ne180100IN2sf6VertexES3_Li0EEENS_4pairIPT_PT0_EES6_S6_S8_, symObjAddr: 0xCFD8, symBinAddr: 0x10000FA40, symSize: 0x48 }
  - { offset: 0x3A7EC, size: 0x8, addend: 0x0, symName: __ZNSt3__14pairIPN2sf6VertexES3_EC1B8ne180100IRS3_S3_Li0EEEOT_OT0_, symObjAddr: 0xD174, symBinAddr: 0x10000FBDC, symSize: 0x3C }
  - { offset: 0x3A84C, size: 0x8, addend: 0x0, symName: __ZNSt3__14pairIPN2sf6VertexES3_EC2B8ne180100IRS3_S3_Li0EEEOT_OT0_, symObjAddr: 0xD1B0, symBinAddr: 0x10000FC18, symSize: 0x34 }
  - { offset: 0x3A8AC, size: 0x8, addend: 0x0, symName: __ZNSt3__118__unwrap_iter_implIPN2sf6VertexELb1EE8__unwrapB8ne180100ES3_, symObjAddr: 0xD1E4, symBinAddr: 0x10000FC4C, symSize: 0x24 }
  - { offset: 0x3A8D0, size: 0x8, addend: 0x0, symName: __ZNSt3__118__unwrap_iter_implIPN2sf6VertexELb1EE8__rewrapB8ne180100ES3_S3_, symObjAddr: 0xD208, symBinAddr: 0x10000FC70, symSize: 0x58 }
  - { offset: 0x3A903, size: 0x8, addend: 0x0, symName: __ZNSt3__16vectorIN2sf6VertexENS_9allocatorIS2_EEE21_ConstructTransactionD2B8ne180100Ev, symObjAddr: 0xD260, symBinAddr: 0x10000FCC8, symSize: 0x20 }
  - { offset: 0x3A92D, size: 0x8, addend: 0x0, symName: __ZNSt3__128__exception_guard_exceptionsINS_6vectorIN2sf6VertexENS_9allocatorIS3_EEE16__destroy_vectorEED2B8ne180100Ev, symObjAddr: 0xD280, symBinAddr: 0x10000FCE8, symSize: 0x48 }
  - { offset: 0x3A957, size: 0x8, addend: 0x0, symName: __ZNSt3__16vectorIN2sf14RectangleShapeENS_9allocatorIS2_EEE21_ConstructTransactionD2B8ne180100Ev, symObjAddr: 0xD2C8, symBinAddr: 0x10000FD30, symSize: 0x20 }
  - { offset: 0x3A981, size: 0x8, addend: 0x0, symName: __ZNKSt3__16vectorIN2sf14RectangleShapeENS_9allocatorIS2_EEE11__recommendB8ne180100Em, symObjAddr: 0xD2E8, symBinAddr: 0x10000FD50, symSize: 0xB4 }
  - { offset: 0x3A9D9, size: 0x8, addend: 0x0, symName: __ZNKSt3__16vectorIN2sf14RectangleShapeENS_9allocatorIS2_EEE4sizeB8ne180100Ev, symObjAddr: 0xD39C, symBinAddr: 0x10000FE04, symSize: 0x28 }
  - { offset: 0x3A9FF, size: 0x8, addend: 0x0, symName: __ZNSt3__114__split_bufferIN2sf14RectangleShapeERNS_9allocatorIS2_EEEC1EmmS5_, symObjAddr: 0xD3C4, symBinAddr: 0x10000FE2C, symSize: 0x44 }
  - { offset: 0x3AA58, size: 0x8, addend: 0x0, symName: __ZNSt3__114__split_bufferIN2sf14RectangleShapeERNS_9allocatorIS2_EEED1Ev, symObjAddr: 0xD518, symBinAddr: 0x10000FF80, symSize: 0x2C }
  - { offset: 0x3AA84, size: 0x8, addend: 0x0, symName: __ZNKSt3__16vectorIN2sf14RectangleShapeENS_9allocatorIS2_EEE8max_sizeEv, symObjAddr: 0xD544, symBinAddr: 0x10000FFAC, symSize: 0x60 }
  - { offset: 0x3AAAC, size: 0x8, addend: 0x0, symName: __ZNKSt3__16vectorIN2sf14RectangleShapeENS_9allocatorIS2_EEE20__throw_length_errorB8ne180100Ev, symObjAddr: 0xD5A4, symBinAddr: 0x10001000C, symSize: 0x1C }
  - { offset: 0x3AADD, size: 0x8, addend: 0x0, symName: __ZNSt3__116allocator_traitsINS_9allocatorIN2sf14RectangleShapeEEEE8max_sizeB8ne180100IS4_vEEmRKS4_, symObjAddr: 0xD5C0, symBinAddr: 0x100010028, symSize: 0x24 }
  - { offset: 0x3AB0C, size: 0x8, addend: 0x0, symName: __ZNKSt3__16vectorIN2sf14RectangleShapeENS_9allocatorIS2_EEE7__allocB8ne180100Ev, symObjAddr: 0xD5E4, symBinAddr: 0x10001004C, symSize: 0x28 }
  - { offset: 0x3AB32, size: 0x8, addend: 0x0, symName: __ZNKSt3__19allocatorIN2sf14RectangleShapeEE8max_sizeB8ne180100Ev, symObjAddr: 0xD60C, symBinAddr: 0x100010074, symSize: 0x20 }
  - { offset: 0x3AB58, size: 0x8, addend: 0x0, symName: __ZNKSt3__117__compressed_pairIPN2sf14RectangleShapeENS_9allocatorIS2_EEE6secondB8ne180100Ev, symObjAddr: 0xD62C, symBinAddr: 0x100010094, symSize: 0x24 }
  - { offset: 0x3AB7E, size: 0x8, addend: 0x0, symName: __ZNKSt3__122__compressed_pair_elemINS_9allocatorIN2sf14RectangleShapeEEELi1ELb1EE5__getB8ne180100Ev, symObjAddr: 0xD650, symBinAddr: 0x1000100B8, symSize: 0x14 }
  - { offset: 0x3ABA4, size: 0x8, addend: 0x0, symName: __ZNSt3__114__split_bufferIN2sf14RectangleShapeERNS_9allocatorIS2_EEEC2EmmS5_, symObjAddr: 0xD664, symBinAddr: 0x1000100CC, symSize: 0xE0 }
  - { offset: 0x3AC1C, size: 0x8, addend: 0x0, symName: __ZNSt3__117__compressed_pairIPN2sf14RectangleShapeERNS_9allocatorIS2_EEEC1B8ne180100IDnS6_EEOT_OT0_, symObjAddr: 0xD744, symBinAddr: 0x1000101AC, symSize: 0x3C }
  - { offset: 0x3AC76, size: 0x8, addend: 0x0, symName: __ZNSt3__114__split_bufferIN2sf14RectangleShapeERNS_9allocatorIS2_EEE7__allocB8ne180100Ev, symObjAddr: 0xD7C0, symBinAddr: 0x100010228, symSize: 0x28 }
  - { offset: 0x3AC9C, size: 0x8, addend: 0x0, symName: __ZNSt3__114__split_bufferIN2sf14RectangleShapeERNS_9allocatorIS2_EEE9__end_capB8ne180100Ev, symObjAddr: 0xD7E8, symBinAddr: 0x100010250, symSize: 0x28 }
  - { offset: 0x3ACC2, size: 0x8, addend: 0x0, symName: __ZNSt3__117__compressed_pairIPN2sf14RectangleShapeERNS_9allocatorIS2_EEEC2B8ne180100IDnS6_EEOT_OT0_, symObjAddr: 0xD810, symBinAddr: 0x100010278, symSize: 0x48 }
  - { offset: 0x3AD1C, size: 0x8, addend: 0x0, symName: __ZNSt3__122__compressed_pair_elemIRNS_9allocatorIN2sf14RectangleShapeEEELi1ELb0EEC2B8ne180100IS5_vEEOT_, symObjAddr: 0xD858, symBinAddr: 0x1000102C0, symSize: 0x20 }
  - { offset: 0x3AD5F, size: 0x8, addend: 0x0, symName: __ZNSt3__19allocatorIN2sf14RectangleShapeEE8allocateB8ne180100Em, symObjAddr: 0xD878, symBinAddr: 0x1000102E0, symSize: 0x5C }
  - { offset: 0x3AD94, size: 0x8, addend: 0x0, symName: __ZNSt3__117__compressed_pairIPN2sf14RectangleShapeERNS_9allocatorIS2_EEE6secondB8ne180100Ev, symObjAddr: 0xD8D4, symBinAddr: 0x10001033C, symSize: 0x28 }
  - { offset: 0x3ADBA, size: 0x8, addend: 0x0, symName: __ZNSt3__122__compressed_pair_elemIRNS_9allocatorIN2sf14RectangleShapeEEELi1ELb0EE5__getB8ne180100Ev, symObjAddr: 0xD8FC, symBinAddr: 0x100010364, symSize: 0x18 }
  - { offset: 0x3ADE0, size: 0x8, addend: 0x0, symName: __ZNSt3__117__compressed_pairIPN2sf14RectangleShapeERNS_9allocatorIS2_EEE5firstB8ne180100Ev, symObjAddr: 0xD914, symBinAddr: 0x10001037C, symSize: 0x24 }
  - { offset: 0x3AE06, size: 0x8, addend: 0x0, symName: __ZNSt3__116reverse_iteratorIPN2sf14RectangleShapeEEC1B8ne180100ES3_, symObjAddr: 0xDA64, symBinAddr: 0x1000104CC, symSize: 0x34 }
  - { offset: 0x3AE3F, size: 0x8, addend: 0x0, symName: __ZNKSt3__116reverse_iteratorIPN2sf14RectangleShapeEE4baseB8ne180100Ev, symObjAddr: 0xDA98, symBinAddr: 0x100010500, symSize: 0x18 }
  - { offset: 0x3AE65, size: 0x8, addend: 0x0, symName: __ZNKSt3__16vectorIN2sf14RectangleShapeENS_9allocatorIS2_EEE14__annotate_newB8ne180100Em, symObjAddr: 0xDAEC, symBinAddr: 0x100010554, symSize: 0x14 }
  - { offset: 0x3AE9B, size: 0x8, addend: 0x0, symName: __ZNSt3__129_AllocatorDestroyRangeReverseINS_9allocatorIN2sf14RectangleShapeEEENS_16reverse_iteratorIPS3_EEEC1B8ne180100ERS4_RS7_SA_, symObjAddr: 0xDB4C, symBinAddr: 0x1000105B4, symSize: 0x44 }
  - { offset: 0x3AEFB, size: 0x8, addend: 0x0, symName: __ZNSt3__116allocator_traitsINS_9allocatorIN2sf14RectangleShapeEEEE9constructB8ne180100IS3_JS3_EvEEvRS4_PT_DpOT0_, symObjAddr: 0xDBD8, symBinAddr: 0x100010640, symSize: 0x34 }
  - { offset: 0x3AF55, size: 0x8, addend: 0x0, symName: __ZNKSt3__116reverse_iteratorIPN2sf14RectangleShapeEEdeB8ne180100Ev, symObjAddr: 0xDC30, symBinAddr: 0x100010698, symSize: 0x28 }
  - { offset: 0x3AF8A, size: 0x8, addend: 0x0, symName: __ZNSt3__116reverse_iteratorIPN2sf14RectangleShapeEEppB8ne180100Ev, symObjAddr: 0xDC58, symBinAddr: 0x1000106C0, symSize: 0x20 }
  - { offset: 0x3AFB0, size: 0x8, addend: 0x0, symName: __ZNSt3__128__exception_guard_exceptionsINS_29_AllocatorDestroyRangeReverseINS_9allocatorIN2sf14RectangleShapeEEENS_16reverse_iteratorIPS4_EEEEE10__completeB8ne180100Ev, symObjAddr: 0xDC78, symBinAddr: 0x1000106E0, symSize: 0x1C }
  - { offset: 0x3AFD6, size: 0x8, addend: 0x0, symName: __ZNSt3__128__exception_guard_exceptionsINS_29_AllocatorDestroyRangeReverseINS_9allocatorIN2sf14RectangleShapeEEENS_16reverse_iteratorIPS4_EEEEED1B8ne180100Ev, symObjAddr: 0xDC94, symBinAddr: 0x1000106FC, symSize: 0x2C }
  - { offset: 0x3B000, size: 0x8, addend: 0x0, symName: __ZNSt3__128__exception_guard_exceptionsINS_29_AllocatorDestroyRangeReverseINS_9allocatorIN2sf14RectangleShapeEEENS_16reverse_iteratorIPS4_EEEEEC1B8ne180100ES9_, symObjAddr: 0xDCC0, symBinAddr: 0x100010728, symSize: 0x34 }
  - { offset: 0x3B03A, size: 0x8, addend: 0x0, symName: __ZNSt3__128__exception_guard_exceptionsINS_29_AllocatorDestroyRangeReverseINS_9allocatorIN2sf14RectangleShapeEEENS_16reverse_iteratorIPS4_EEEEEC2B8ne180100ES9_, symObjAddr: 0xDCF4, symBinAddr: 0x10001075C, symSize: 0x30 }
  - { offset: 0x3B074, size: 0x8, addend: 0x0, symName: __ZNSt3__129_AllocatorDestroyRangeReverseINS_9allocatorIN2sf14RectangleShapeEEENS_16reverse_iteratorIPS3_EEEC2B8ne180100ERS4_RS7_SA_, symObjAddr: 0xDD24, symBinAddr: 0x10001078C, symSize: 0x38 }
  - { offset: 0x3B0CE, size: 0x8, addend: 0x0, symName: __ZNSt3__19allocatorIN2sf14RectangleShapeEE9constructB8ne180100IS2_JS2_EEEvPT_DpOT0_, symObjAddr: 0xDD5C, symBinAddr: 0x1000107C4, symSize: 0x30 }
  - { offset: 0x3B126, size: 0x8, addend: 0x0, symName: __ZN2sf14RectangleShapeC1EOS0_, symObjAddr: 0xDD8C, symBinAddr: 0x1000107F4, symSize: 0x34 }
  - { offset: 0x3B15B, size: 0x8, addend: 0x0, symName: __ZN2sf14RectangleShapeC2EOS0_, symObjAddr: 0xDDC0, symBinAddr: 0x100010828, symSize: 0x58 }
  - { offset: 0x3B196, size: 0x8, addend: 0x0, symName: __ZN2sf5ShapeC2EOS0_, symObjAddr: 0xDE18, symBinAddr: 0x100010880, symSize: 0xC8 }
  - { offset: 0x3B1D1, size: 0x8, addend: 0x0, symName: __ZN2sf11VertexArrayC1EOS0_, symObjAddr: 0xDEE0, symBinAddr: 0x100010948, symSize: 0x34 }
  - { offset: 0x3B206, size: 0x8, addend: 0x0, symName: __ZN2sf11VertexArrayC2EOS0_, symObjAddr: 0xDF14, symBinAddr: 0x10001097C, symSize: 0x64 }
  - { offset: 0x3B23B, size: 0x8, addend: 0x0, symName: __ZNSt3__16vectorIN2sf6VertexENS_9allocatorIS2_EEEC1B8ne180100EOS5_, symObjAddr: 0xDF78, symBinAddr: 0x1000109E0, symSize: 0x34 }
  - { offset: 0x3B277, size: 0x8, addend: 0x0, symName: __ZNSt3__16vectorIN2sf6VertexENS_9allocatorIS2_EEEC2B8ne180100EOS5_, symObjAddr: 0xDFAC, symBinAddr: 0x100010A14, symSize: 0xC4 }
  - { offset: 0x3B2B9, size: 0x8, addend: 0x0, symName: __ZNSt3__119__to_address_helperINS_16reverse_iteratorIPN2sf14RectangleShapeEEEvE6__callB8ne180100ERKS5_, symObjAddr: 0xE070, symBinAddr: 0x100010AD8, symSize: 0x38 }
  - { offset: 0x3B2DD, size: 0x8, addend: 0x0, symName: __ZNKSt3__116reverse_iteratorIPN2sf14RectangleShapeEEptB8ne180100Ev, symObjAddr: 0xE0A8, symBinAddr: 0x100010B10, symSize: 0x24 }
  - { offset: 0x3B303, size: 0x8, addend: 0x0, symName: __ZNSt3__128__exception_guard_exceptionsINS_29_AllocatorDestroyRangeReverseINS_9allocatorIN2sf14RectangleShapeEEENS_16reverse_iteratorIPS4_EEEEED2B8ne180100Ev, symObjAddr: 0xE0CC, symBinAddr: 0x100010B34, symSize: 0x50 }
  - { offset: 0x3B32D, size: 0x8, addend: 0x0, symName: __ZNKSt3__129_AllocatorDestroyRangeReverseINS_9allocatorIN2sf14RectangleShapeEEENS_16reverse_iteratorIPS3_EEEclB8ne180100Ev, symObjAddr: 0xE11C, symBinAddr: 0x100010B84, symSize: 0xB4 }
  - { offset: 0x3B354, size: 0x8, addend: 0x0, symName: __ZNSt3__116reverse_iteratorINS0_IPN2sf14RectangleShapeEEEEC1B8ne180100ES4_, symObjAddr: 0xE240, symBinAddr: 0x100010CA8, symSize: 0x3C }
  - { offset: 0x3B38D, size: 0x8, addend: 0x0, symName: __ZNSt3__116reverse_iteratorINS0_IPN2sf14RectangleShapeEEEEppB8ne180100Ev, symObjAddr: 0xE300, symBinAddr: 0x100010D68, symSize: 0x30 }
  - { offset: 0x3B3B3, size: 0x8, addend: 0x0, symName: __ZNKSt3__116reverse_iteratorINS0_IPN2sf14RectangleShapeEEEE4baseB8ne180100Ev, symObjAddr: 0xE330, symBinAddr: 0x100010D98, symSize: 0x24 }
  - { offset: 0x3B3DF, size: 0x8, addend: 0x0, symName: __ZNSt3__119__to_address_helperINS_16reverse_iteratorINS1_IPN2sf14RectangleShapeEEEEEvE6__callB8ne180100ERKS6_, symObjAddr: 0xE354, symBinAddr: 0x100010DBC, symSize: 0x38 }
  - { offset: 0x3B403, size: 0x8, addend: 0x0, symName: __ZNKSt3__116reverse_iteratorINS0_IPN2sf14RectangleShapeEEEEptB8ne180100Ev, symObjAddr: 0xE38C, symBinAddr: 0x100010DF4, symSize: 0x24 }
  - { offset: 0x3B429, size: 0x8, addend: 0x0, symName: __ZNKSt3__116reverse_iteratorINS0_IPN2sf14RectangleShapeEEEEdeB8ne180100Ev, symObjAddr: 0xE3B0, symBinAddr: 0x100010E18, symSize: 0x34 }
  - { offset: 0x3B45E, size: 0x8, addend: 0x0, symName: __ZNSt3__116reverse_iteratorIPN2sf14RectangleShapeEEmmB8ne180100Ev, symObjAddr: 0xE3E4, symBinAddr: 0x100010E4C, symSize: 0x20 }
  - { offset: 0x3B484, size: 0x8, addend: 0x0, symName: __ZNSt3__116reverse_iteratorINS0_IPN2sf14RectangleShapeEEEEC2B8ne180100ES4_, symObjAddr: 0xE404, symBinAddr: 0x100010E6C, symSize: 0x2C }
  - { offset: 0x3B4BD, size: 0x8, addend: 0x0, symName: __ZNSt3__116reverse_iteratorIPN2sf14RectangleShapeEEC2B8ne180100ES3_, symObjAddr: 0xE430, symBinAddr: 0x100010E98, symSize: 0x28 }
  - { offset: 0x3B4F6, size: 0x8, addend: 0x0, symName: __ZNSt3__114__split_bufferIN2sf14RectangleShapeERNS_9allocatorIS2_EEED2Ev, symObjAddr: 0xE458, symBinAddr: 0x100010EC0, symSize: 0x8C }
  - { offset: 0x3B522, size: 0x8, addend: 0x0, symName: __ZNSt3__114__split_bufferIN2sf14RectangleShapeERNS_9allocatorIS2_EEE5clearB8ne180100Ev, symObjAddr: 0xE4E4, symBinAddr: 0x100010F4C, symSize: 0x28 }
  - { offset: 0x3B548, size: 0x8, addend: 0x0, symName: __ZNKSt3__114__split_bufferIN2sf14RectangleShapeERNS_9allocatorIS2_EEE8capacityB8ne180100Ev, symObjAddr: 0xE50C, symBinAddr: 0x100010F74, symSize: 0x40 }
  - { offset: 0x3B56E, size: 0x8, addend: 0x0, symName: __ZNSt3__114__split_bufferIN2sf14RectangleShapeERNS_9allocatorIS2_EEE17__destruct_at_endB8ne180100EPS2_, symObjAddr: 0xE54C, symBinAddr: 0x100010FB4, symSize: 0x2C }
  - { offset: 0x3B5A3, size: 0x8, addend: 0x0, symName: __ZNSt3__114__split_bufferIN2sf14RectangleShapeERNS_9allocatorIS2_EEE17__destruct_at_endB8ne180100EPS2_NS_17integral_constantIbLb0EEE, symObjAddr: 0xE578, symBinAddr: 0x100010FE0, symSize: 0x80 }
  - { offset: 0x3B5E5, size: 0x8, addend: 0x0, symName: __ZNKSt3__114__split_bufferIN2sf14RectangleShapeERNS_9allocatorIS2_EEE9__end_capB8ne180100Ev, symObjAddr: 0xE5F8, symBinAddr: 0x100011060, symSize: 0x28 }
  - { offset: 0x3B60B, size: 0x8, addend: 0x0, symName: __ZNKSt3__117__compressed_pairIPN2sf14RectangleShapeERNS_9allocatorIS2_EEE5firstB8ne180100Ev, symObjAddr: 0xE620, symBinAddr: 0x100011088, symSize: 0x24 }
  - { offset: 0x3B631, size: 0x8, addend: 0x0, symName: __ZNSt3__16vectorI6PlayerNS_9allocatorIS1_EEEC2B8ne180100Ev, symObjAddr: 0xE644, symBinAddr: 0x1000110AC, symSize: 0x4C }
  - { offset: 0x3B65B, size: 0x8, addend: 0x0, symName: __ZNSt3__117__compressed_pairIP6PlayerNS_9allocatorIS1_EEEC1B8ne180100IDnNS_18__default_init_tagEEEOT_OT0_, symObjAddr: 0xE690, symBinAddr: 0x1000110F8, symSize: 0x3C }
  - { offset: 0x3B6B5, size: 0x8, addend: 0x0, symName: __ZNSt3__117__compressed_pairIP6PlayerNS_9allocatorIS1_EEEC2B8ne180100IDnNS_18__default_init_tagEEEOT_OT0_, symObjAddr: 0xE6CC, symBinAddr: 0x100011134, symSize: 0x40 }
  - { offset: 0x3B70F, size: 0x8, addend: 0x0, symName: __ZNSt3__122__compressed_pair_elemIP6PlayerLi0ELb0EEC2B8ne180100IDnvEEOT_, symObjAddr: 0xE70C, symBinAddr: 0x100011174, symSize: 0x1C }
  - { offset: 0x3B752, size: 0x8, addend: 0x0, symName: __ZNSt3__122__compressed_pair_elemINS_9allocatorI6PlayerEELi1ELb1EEC2B8ne180100ENS_18__default_init_tagE, symObjAddr: 0xE728, symBinAddr: 0x100011190, symSize: 0x2C }
  - { offset: 0x3B787, size: 0x8, addend: 0x0, symName: __ZNSt3__19allocatorI6PlayerEC2B8ne180100Ev, symObjAddr: 0xE754, symBinAddr: 0x1000111BC, symSize: 0x2C }
  - { offset: 0x3B7B1, size: 0x8, addend: 0x0, symName: __ZNSt3__116__non_trivial_ifILb1ENS_9allocatorI6PlayerEEEC2B8ne180100Ev, symObjAddr: 0xE780, symBinAddr: 0x1000111E8, symSize: 0x14 }
  - { offset: 0x3B7DB, size: 0x8, addend: 0x0, symName: __ZNSt3__16vectorI6PlayerNS_9allocatorIS1_EEED2B8ne180100Ev, symObjAddr: 0xE794, symBinAddr: 0x1000111FC, symSize: 0x44 }
  - { offset: 0x3B805, size: 0x8, addend: 0x0, symName: __ZNSt3__16vectorI6PlayerNS_9allocatorIS1_EEE16__destroy_vectorC1B8ne180100ERS4_, symObjAddr: 0xE7D8, symBinAddr: 0x100011240, symSize: 0x34 }
  - { offset: 0x3B83F, size: 0x8, addend: 0x0, symName: __ZNSt3__16vectorI6PlayerNS_9allocatorIS1_EEE16__destroy_vectorclB8ne180100Ev, symObjAddr: 0xE80C, symBinAddr: 0x100011274, symSize: 0x90 }
  - { offset: 0x3B865, size: 0x8, addend: 0x0, symName: __ZNSt3__16vectorI6PlayerNS_9allocatorIS1_EEE16__destroy_vectorC2B8ne180100ERS4_, symObjAddr: 0xE89C, symBinAddr: 0x100011304, symSize: 0x20 }
  - { offset: 0x3B89F, size: 0x8, addend: 0x0, symName: __ZNSt3__16vectorI6PlayerNS_9allocatorIS1_EEE7__clearB8ne180100Ev, symObjAddr: 0xE8BC, symBinAddr: 0x100011324, symSize: 0x28 }
  - { offset: 0x3B8C5, size: 0x8, addend: 0x0, symName: __ZNKSt3__16vectorI6PlayerNS_9allocatorIS1_EEE17__annotate_deleteB8ne180100Ev, symObjAddr: 0xE8E4, symBinAddr: 0x10001134C, symSize: 0x10 }
  - { offset: 0x3B8EB, size: 0x8, addend: 0x0, symName: __ZNSt3__116allocator_traitsINS_9allocatorI6PlayerEEE10deallocateB8ne180100ERS3_PS2_m, symObjAddr: 0xE8F4, symBinAddr: 0x10001135C, symSize: 0x34 }
  - { offset: 0x3B930, size: 0x8, addend: 0x0, symName: __ZNSt3__16vectorI6PlayerNS_9allocatorIS1_EEE7__allocB8ne180100Ev, symObjAddr: 0xE928, symBinAddr: 0x100011390, symSize: 0x28 }
  - { offset: 0x3B956, size: 0x8, addend: 0x0, symName: __ZNKSt3__16vectorI6PlayerNS_9allocatorIS1_EEE8capacityB8ne180100Ev, symObjAddr: 0xE950, symBinAddr: 0x1000113B8, symSize: 0x40 }
  - { offset: 0x3B97C, size: 0x8, addend: 0x0, symName: __ZNSt3__16vectorI6PlayerNS_9allocatorIS1_EEE22__base_destruct_at_endB8ne180100EPS1_, symObjAddr: 0xE990, symBinAddr: 0x1000113F8, symSize: 0x8C }
  - { offset: 0x3B9C2, size: 0x8, addend: 0x0, symName: __ZNSt3__116allocator_traitsINS_9allocatorI6PlayerEEE7destroyB8ne180100IS2_vEEvRS3_PT_, symObjAddr: 0xEA1C, symBinAddr: 0x100011484, symSize: 0x2C }
  - { offset: 0x3BA01, size: 0x8, addend: 0x0, symName: __ZNSt3__19allocatorI6PlayerE7destroyB8ne180100EPS1_, symObjAddr: 0xEA5C, symBinAddr: 0x1000114C4, symSize: 0x28 }
  - { offset: 0x3BA36, size: 0x8, addend: 0x0, symName: __ZN6PlayerD1Ev, symObjAddr: 0xEA84, symBinAddr: 0x1000114EC, symSize: 0x2C }
  - { offset: 0x3BA62, size: 0x8, addend: 0x0, symName: __ZN6PlayerD2Ev, symObjAddr: 0xEAB0, symBinAddr: 0x100011518, symSize: 0x5C }
  - { offset: 0x3BA8E, size: 0x8, addend: 0x0, symName: __ZNSt3__18optionalIN2sf6SpriteEED1Ev, symObjAddr: 0xEB0C, symBinAddr: 0x100011574, symSize: 0x2C }
  - { offset: 0x3BABB, size: 0x8, addend: 0x0, symName: __ZNSt3__18optionalIN2sf6SpriteEED2Ev, symObjAddr: 0xEB38, symBinAddr: 0x1000115A0, symSize: 0x2C }
  - { offset: 0x3BAE8, size: 0x8, addend: 0x0, symName: __ZNSt3__127__optional_move_assign_baseIN2sf6SpriteELb0EED2Ev, symObjAddr: 0xEB64, symBinAddr: 0x1000115CC, symSize: 0x2C }
  - { offset: 0x3BB15, size: 0x8, addend: 0x0, symName: __ZNSt3__127__optional_copy_assign_baseIN2sf6SpriteELb0EED2Ev, symObjAddr: 0xEB90, symBinAddr: 0x1000115F8, symSize: 0x2C }
  - { offset: 0x3BB42, size: 0x8, addend: 0x0, symName: __ZNSt3__120__optional_move_baseIN2sf6SpriteELb0EED2Ev, symObjAddr: 0xEBBC, symBinAddr: 0x100011624, symSize: 0x2C }
  - { offset: 0x3BB6F, size: 0x8, addend: 0x0, symName: __ZNSt3__120__optional_copy_baseIN2sf6SpriteELb0EED2Ev, symObjAddr: 0xEBE8, symBinAddr: 0x100011650, symSize: 0x2C }
  - { offset: 0x3BB9C, size: 0x8, addend: 0x0, symName: __ZNSt3__123__optional_storage_baseIN2sf6SpriteELb0EED2Ev, symObjAddr: 0xEC14, symBinAddr: 0x10001167C, symSize: 0x2C }
  - { offset: 0x3BBC9, size: 0x8, addend: 0x0, symName: __ZNSt3__124__optional_destruct_baseIN2sf6SpriteELb0EED2B8ne180100Ev, symObjAddr: 0xEC40, symBinAddr: 0x1000116A8, symSize: 0x48 }
  - { offset: 0x3BBF3, size: 0x8, addend: 0x0, symName: __ZNSt3__19allocatorI6PlayerE10deallocateB8ne180100EPS1_m, symObjAddr: 0xEC88, symBinAddr: 0x1000116F0, symSize: 0x44 }
  - { offset: 0x3BC37, size: 0x8, addend: 0x0, symName: __ZNSt3__117__compressed_pairIP6PlayerNS_9allocatorIS1_EEE6secondB8ne180100Ev, symObjAddr: 0xECCC, symBinAddr: 0x100011734, symSize: 0x24 }
  - { offset: 0x3BC5D, size: 0x8, addend: 0x0, symName: __ZNSt3__122__compressed_pair_elemINS_9allocatorI6PlayerEELi1ELb1EE5__getB8ne180100Ev, symObjAddr: 0xECF0, symBinAddr: 0x100011758, symSize: 0x14 }
  - { offset: 0x3BC83, size: 0x8, addend: 0x0, symName: __ZNKSt3__16vectorI6PlayerNS_9allocatorIS1_EEE9__end_capB8ne180100Ev, symObjAddr: 0xED04, symBinAddr: 0x10001176C, symSize: 0x28 }
  - { offset: 0x3BCA9, size: 0x8, addend: 0x0, symName: __ZNKSt3__117__compressed_pairIP6PlayerNS_9allocatorIS1_EEE5firstB8ne180100Ev, symObjAddr: 0xED2C, symBinAddr: 0x100011794, symSize: 0x24 }
  - { offset: 0x3BCCF, size: 0x8, addend: 0x0, symName: __ZNKSt3__122__compressed_pair_elemIP6PlayerLi0ELb0EE5__getB8ne180100Ev, symObjAddr: 0xED50, symBinAddr: 0x1000117B8, symSize: 0x14 }
  - { offset: 0x3BCF5, size: 0x8, addend: 0x0, symName: __ZNSt3__16vectorI9BoomerangNS_9allocatorIS1_EEEC2B8ne180100Ev, symObjAddr: 0xED64, symBinAddr: 0x1000117CC, symSize: 0x4C }
  - { offset: 0x3BD1F, size: 0x8, addend: 0x0, symName: __ZNSt3__117__compressed_pairIP9BoomerangNS_9allocatorIS1_EEEC1B8ne180100IDnNS_18__default_init_tagEEEOT_OT0_, symObjAddr: 0xEDB0, symBinAddr: 0x100011818, symSize: 0x3C }
  - { offset: 0x3BD79, size: 0x8, addend: 0x0, symName: __ZNSt3__117__compressed_pairIP9BoomerangNS_9allocatorIS1_EEEC2B8ne180100IDnNS_18__default_init_tagEEEOT_OT0_, symObjAddr: 0xEDEC, symBinAddr: 0x100011854, symSize: 0x40 }
  - { offset: 0x3BDD3, size: 0x8, addend: 0x0, symName: __ZNSt3__122__compressed_pair_elemIP9BoomerangLi0ELb0EEC2B8ne180100IDnvEEOT_, symObjAddr: 0xEE2C, symBinAddr: 0x100011894, symSize: 0x1C }
  - { offset: 0x3BE16, size: 0x8, addend: 0x0, symName: __ZNSt3__122__compressed_pair_elemINS_9allocatorI9BoomerangEELi1ELb1EEC2B8ne180100ENS_18__default_init_tagE, symObjAddr: 0xEE48, symBinAddr: 0x1000118B0, symSize: 0x2C }
  - { offset: 0x3BE4B, size: 0x8, addend: 0x0, symName: __ZNSt3__19allocatorI9BoomerangEC2B8ne180100Ev, symObjAddr: 0xEE74, symBinAddr: 0x1000118DC, symSize: 0x2C }
  - { offset: 0x3BE75, size: 0x8, addend: 0x0, symName: __ZNSt3__116__non_trivial_ifILb1ENS_9allocatorI9BoomerangEEEC2B8ne180100Ev, symObjAddr: 0xEEA0, symBinAddr: 0x100011908, symSize: 0x14 }
  - { offset: 0x3BE9F, size: 0x8, addend: 0x0, symName: __ZNSt3__16vectorI9BoomerangNS_9allocatorIS1_EEED2B8ne180100Ev, symObjAddr: 0xEEB4, symBinAddr: 0x10001191C, symSize: 0x44 }
  - { offset: 0x3BEC9, size: 0x8, addend: 0x0, symName: __ZNSt3__16vectorI9BoomerangNS_9allocatorIS1_EEE16__destroy_vectorC1B8ne180100ERS4_, symObjAddr: 0xEEF8, symBinAddr: 0x100011960, symSize: 0x34 }
  - { offset: 0x3BF03, size: 0x8, addend: 0x0, symName: __ZNSt3__16vectorI9BoomerangNS_9allocatorIS1_EEE16__destroy_vectorclB8ne180100Ev, symObjAddr: 0xEF2C, symBinAddr: 0x100011994, symSize: 0x90 }
  - { offset: 0x3BF29, size: 0x8, addend: 0x0, symName: __ZNSt3__16vectorI9BoomerangNS_9allocatorIS1_EEE16__destroy_vectorC2B8ne180100ERS4_, symObjAddr: 0xEFBC, symBinAddr: 0x100011A24, symSize: 0x20 }
  - { offset: 0x3BF63, size: 0x8, addend: 0x0, symName: __ZNSt3__16vectorI9BoomerangNS_9allocatorIS1_EEE7__clearB8ne180100Ev, symObjAddr: 0xEFDC, symBinAddr: 0x100011A44, symSize: 0x28 }
  - { offset: 0x3BF89, size: 0x8, addend: 0x0, symName: __ZNKSt3__16vectorI9BoomerangNS_9allocatorIS1_EEE17__annotate_deleteB8ne180100Ev, symObjAddr: 0xF004, symBinAddr: 0x100011A6C, symSize: 0x10 }
  - { offset: 0x3BFAF, size: 0x8, addend: 0x0, symName: __ZNSt3__116allocator_traitsINS_9allocatorI9BoomerangEEE10deallocateB8ne180100ERS3_PS2_m, symObjAddr: 0xF014, symBinAddr: 0x100011A7C, symSize: 0x34 }
  - { offset: 0x3BFF4, size: 0x8, addend: 0x0, symName: __ZNSt3__16vectorI9BoomerangNS_9allocatorIS1_EEE7__allocB8ne180100Ev, symObjAddr: 0xF048, symBinAddr: 0x100011AB0, symSize: 0x28 }
  - { offset: 0x3C01A, size: 0x8, addend: 0x0, symName: __ZNKSt3__16vectorI9BoomerangNS_9allocatorIS1_EEE8capacityB8ne180100Ev, symObjAddr: 0xF070, symBinAddr: 0x100011AD8, symSize: 0x40 }
  - { offset: 0x3C040, size: 0x8, addend: 0x0, symName: __ZNSt3__16vectorI9BoomerangNS_9allocatorIS1_EEE22__base_destruct_at_endB8ne180100EPS1_, symObjAddr: 0xF0B0, symBinAddr: 0x100011B18, symSize: 0x8C }
  - { offset: 0x3C086, size: 0x8, addend: 0x0, symName: __ZNSt3__116allocator_traitsINS_9allocatorI9BoomerangEEE7destroyB8ne180100IS2_vEEvRS3_PT_, symObjAddr: 0xF13C, symBinAddr: 0x100011BA4, symSize: 0x2C }
  - { offset: 0x3C0C5, size: 0x8, addend: 0x0, symName: __ZNSt3__19allocatorI9BoomerangE7destroyB8ne180100EPS1_, symObjAddr: 0xF17C, symBinAddr: 0x100011BE4, symSize: 0x28 }
  - { offset: 0x3C0FA, size: 0x8, addend: 0x0, symName: __ZNSt3__19allocatorI9BoomerangE10deallocateB8ne180100EPS1_m, symObjAddr: 0xF1A4, symBinAddr: 0x100011C0C, symSize: 0x44 }
  - { offset: 0x3C13E, size: 0x8, addend: 0x0, symName: __ZNSt3__117__compressed_pairIP9BoomerangNS_9allocatorIS1_EEE6secondB8ne180100Ev, symObjAddr: 0xF1E8, symBinAddr: 0x100011C50, symSize: 0x24 }
  - { offset: 0x3C164, size: 0x8, addend: 0x0, symName: __ZNSt3__122__compressed_pair_elemINS_9allocatorI9BoomerangEELi1ELb1EE5__getB8ne180100Ev, symObjAddr: 0xF20C, symBinAddr: 0x100011C74, symSize: 0x14 }
  - { offset: 0x3C18A, size: 0x8, addend: 0x0, symName: __ZNKSt3__16vectorI9BoomerangNS_9allocatorIS1_EEE9__end_capB8ne180100Ev, symObjAddr: 0xF220, symBinAddr: 0x100011C88, symSize: 0x28 }
  - { offset: 0x3C1B0, size: 0x8, addend: 0x0, symName: __ZNKSt3__117__compressed_pairIP9BoomerangNS_9allocatorIS1_EEE5firstB8ne180100Ev, symObjAddr: 0xF248, symBinAddr: 0x100011CB0, symSize: 0x24 }
  - { offset: 0x3C1D6, size: 0x8, addend: 0x0, symName: __ZNKSt3__122__compressed_pair_elemIP9BoomerangLi0ELb0EE5__getB8ne180100Ev, symObjAddr: 0xF26C, symBinAddr: 0x100011CD4, symSize: 0x14 }
  - { offset: 0x3C1FC, size: 0x8, addend: 0x0, symName: __ZNSt3__16vectorIiNS_9allocatorIiEEEC2B8ne180100Ev, symObjAddr: 0xF280, symBinAddr: 0x100011CE8, symSize: 0x4C }
  - { offset: 0x3C226, size: 0x8, addend: 0x0, symName: __ZNSt3__117__compressed_pairIPiNS_9allocatorIiEEEC1B8ne180100IDnNS_18__default_init_tagEEEOT_OT0_, symObjAddr: 0xF2CC, symBinAddr: 0x100011D34, symSize: 0x3C }
  - { offset: 0x3C280, size: 0x8, addend: 0x0, symName: __ZNSt3__117__compressed_pairIPiNS_9allocatorIiEEEC2B8ne180100IDnNS_18__default_init_tagEEEOT_OT0_, symObjAddr: 0xF308, symBinAddr: 0x100011D70, symSize: 0x40 }
  - { offset: 0x3C2DA, size: 0x8, addend: 0x0, symName: __ZNSt3__122__compressed_pair_elemIPiLi0ELb0EEC2B8ne180100IDnvEEOT_, symObjAddr: 0xF348, symBinAddr: 0x100011DB0, symSize: 0x1C }
  - { offset: 0x3C31D, size: 0x8, addend: 0x0, symName: __ZNSt3__122__compressed_pair_elemINS_9allocatorIiEELi1ELb1EEC2B8ne180100ENS_18__default_init_tagE, symObjAddr: 0xF364, symBinAddr: 0x100011DCC, symSize: 0x2C }
  - { offset: 0x3C352, size: 0x8, addend: 0x0, symName: __ZNSt3__19allocatorIiEC2B8ne180100Ev, symObjAddr: 0xF390, symBinAddr: 0x100011DF8, symSize: 0x2C }
  - { offset: 0x3C37C, size: 0x8, addend: 0x0, symName: __ZNSt3__116__non_trivial_ifILb1ENS_9allocatorIiEEEC2B8ne180100Ev, symObjAddr: 0xF3BC, symBinAddr: 0x100011E24, symSize: 0x14 }
  - { offset: 0x3C3A6, size: 0x8, addend: 0x0, symName: __ZNSt3__16vectorIiNS_9allocatorIiEEED2B8ne180100Ev, symObjAddr: 0xF3D0, symBinAddr: 0x100011E38, symSize: 0x44 }
  - { offset: 0x3C3D0, size: 0x8, addend: 0x0, symName: __ZNSt3__16vectorIiNS_9allocatorIiEEE16__destroy_vectorC1B8ne180100ERS3_, symObjAddr: 0xF414, symBinAddr: 0x100011E7C, symSize: 0x34 }
  - { offset: 0x3C40A, size: 0x8, addend: 0x0, symName: __ZNSt3__16vectorIiNS_9allocatorIiEEE16__destroy_vectorclB8ne180100Ev, symObjAddr: 0xF448, symBinAddr: 0x100011EB0, symSize: 0x90 }
  - { offset: 0x3C430, size: 0x8, addend: 0x0, symName: __ZNSt3__16vectorIiNS_9allocatorIiEEE16__destroy_vectorC2B8ne180100ERS3_, symObjAddr: 0xF4D8, symBinAddr: 0x100011F40, symSize: 0x20 }
  - { offset: 0x3C46A, size: 0x8, addend: 0x0, symName: __ZNSt3__16vectorIiNS_9allocatorIiEEE7__clearB8ne180100Ev, symObjAddr: 0xF4F8, symBinAddr: 0x100011F60, symSize: 0x28 }
  - { offset: 0x3C490, size: 0x8, addend: 0x0, symName: __ZNKSt3__16vectorIiNS_9allocatorIiEEE17__annotate_deleteB8ne180100Ev, symObjAddr: 0xF520, symBinAddr: 0x100011F88, symSize: 0x10 }
  - { offset: 0x3C4B6, size: 0x8, addend: 0x0, symName: __ZNSt3__116allocator_traitsINS_9allocatorIiEEE10deallocateB8ne180100ERS2_Pim, symObjAddr: 0xF530, symBinAddr: 0x100011F98, symSize: 0x34 }
  - { offset: 0x3C4FB, size: 0x8, addend: 0x0, symName: __ZNSt3__16vectorIiNS_9allocatorIiEEE7__allocB8ne180100Ev, symObjAddr: 0xF564, symBinAddr: 0x100011FCC, symSize: 0x28 }
  - { offset: 0x3C521, size: 0x8, addend: 0x0, symName: __ZNKSt3__16vectorIiNS_9allocatorIiEEE8capacityB8ne180100Ev, symObjAddr: 0xF58C, symBinAddr: 0x100011FF4, symSize: 0x40 }
  - { offset: 0x3C547, size: 0x8, addend: 0x0, symName: __ZNSt3__16vectorIiNS_9allocatorIiEEE22__base_destruct_at_endB8ne180100EPi, symObjAddr: 0xF5CC, symBinAddr: 0x100012034, symSize: 0x8C }
  - { offset: 0x3C58D, size: 0x8, addend: 0x0, symName: __ZNSt3__116allocator_traitsINS_9allocatorIiEEE7destroyB8ne180100IivEEvRS2_PT_, symObjAddr: 0xF658, symBinAddr: 0x1000120C0, symSize: 0x2C }
  - { offset: 0x3C5CC, size: 0x8, addend: 0x0, symName: __ZNSt3__19allocatorIiE7destroyB8ne180100EPi, symObjAddr: 0xF698, symBinAddr: 0x100012100, symSize: 0x14 }
  - { offset: 0x3C601, size: 0x8, addend: 0x0, symName: __ZNSt3__19allocatorIiE10deallocateB8ne180100EPim, symObjAddr: 0xF6AC, symBinAddr: 0x100012114, symSize: 0x40 }
  - { offset: 0x3C645, size: 0x8, addend: 0x0, symName: __ZNSt3__117__compressed_pairIPiNS_9allocatorIiEEE6secondB8ne180100Ev, symObjAddr: 0xF6EC, symBinAddr: 0x100012154, symSize: 0x24 }
  - { offset: 0x3C66B, size: 0x8, addend: 0x0, symName: __ZNSt3__122__compressed_pair_elemINS_9allocatorIiEELi1ELb1EE5__getB8ne180100Ev, symObjAddr: 0xF710, symBinAddr: 0x100012178, symSize: 0x14 }
  - { offset: 0x3C691, size: 0x8, addend: 0x0, symName: __ZNKSt3__16vectorIiNS_9allocatorIiEEE9__end_capB8ne180100Ev, symObjAddr: 0xF724, symBinAddr: 0x10001218C, symSize: 0x28 }
  - { offset: 0x3C6B7, size: 0x8, addend: 0x0, symName: __ZNKSt3__117__compressed_pairIPiNS_9allocatorIiEEE5firstB8ne180100Ev, symObjAddr: 0xF74C, symBinAddr: 0x1000121B4, symSize: 0x24 }
  - { offset: 0x3C6DD, size: 0x8, addend: 0x0, symName: __ZNKSt3__122__compressed_pair_elemIPiLi0ELb0EE5__getB8ne180100Ev, symObjAddr: 0xF770, symBinAddr: 0x1000121D8, symSize: 0x14 }
  - { offset: 0x3C703, size: 0x8, addend: 0x0, symName: __ZNKSt3__17variantIJN2sf5Event6ClosedENS2_7ResizedENS2_9FocusLostENS2_11FocusGainedENS2_11TextEnteredENS2_10KeyPressedENS2_11KeyReleasedENS2_18MouseWheelScrolledENS2_18MouseButtonPressedENS2_19MouseButtonReleasedENS2_10MouseMovedENS2_13MouseMovedRawENS2_12MouseEnteredENS2_9MouseLeftENS2_21JoystickButtonPressedENS2_22JoystickButtonReleasedENS2_13JoystickMovedENS2_17JoystickConnectedENS2_20JoystickDisconnectedENS2_10TouchBeganENS2_10TouchMovedENS2_10TouchEndedENS2_13SensorChangedEEE5indexB8ne180100Ev, symObjAddr: 0xF7DC, symBinAddr: 0x100012244, symSize: 0x24 }
  - { offset: 0x3C729, size: 0x8, addend: 0x0, symName: __ZNKSt3__116__variant_detail6__baseILNS0_6_TraitE0EJN2sf5Event6ClosedENS4_7ResizedENS4_9FocusLostENS4_11FocusGainedENS4_11TextEnteredENS4_10KeyPressedENS4_11KeyReleasedENS4_18MouseWheelScrolledENS4_18MouseButtonPressedENS4_19MouseButtonReleasedENS4_10MouseMovedENS4_13MouseMovedRawENS4_12MouseEnteredENS4_9MouseLeftENS4_21JoystickButtonPressedENS4_22JoystickButtonReleasedENS4_13JoystickMovedENS4_17JoystickConnectedENS4_20JoystickDisconnectedENS4_10TouchBeganENS4_10TouchMovedENS4_10TouchEndedENS4_13SensorChangedEEE5indexB8ne180100Ev, symObjAddr: 0xF800, symBinAddr: 0x100012268, symSize: 0x4C }
  - { offset: 0x3C75A, size: 0x8, addend: 0x0, symName: __ZNSt3__116__variant_detail8__access9__variant9__get_altB8ne180100ILm14ERKNS_7variantIJN2sf5Event6ClosedENS6_7ResizedENS6_9FocusLostENS6_11FocusGainedENS6_11TextEnteredENS6_10KeyPressedENS6_11KeyReleasedENS6_18MouseWheelScrolledENS6_18MouseButtonPressedENS6_19MouseButtonReleasedENS6_10MouseMovedENS6_13MouseMovedRawENS6_12MouseEnteredENS6_9MouseLeftENS6_21JoystickButtonPressedENS6_22JoystickButtonReleasedENS6_13JoystickMovedENS6_17JoystickConnectedENS6_20JoystickDisconnectedENS6_10TouchBeganENS6_10TouchMovedENS6_10TouchEndedENS6_13SensorChangedEEEEEEODaOT0_, symObjAddr: 0xF95C, symBinAddr: 0x1000123C4, symSize: 0x24 }
  - { offset: 0x3C792, size: 0x8, addend: 0x0, symName: __ZNSt3__116__variant_detail8__access6__base9__get_altB8ne180100ILm14ERKNS0_6__implIJN2sf5Event6ClosedENS6_7ResizedENS6_9FocusLostENS6_11FocusGainedENS6_11TextEnteredENS6_10KeyPressedENS6_11KeyReleasedENS6_18MouseWheelScrolledENS6_18MouseButtonPressedENS6_19MouseButtonReleasedENS6_10MouseMovedENS6_13MouseMovedRawENS6_12MouseEnteredENS6_9MouseLeftENS6_21JoystickButtonPressedENS6_22JoystickButtonReleasedENS6_13JoystickMovedENS6_17JoystickConnectedENS6_20JoystickDisconnectedENS6_10TouchBeganENS6_10TouchMovedENS6_10TouchEndedENS6_13SensorChangedEEEEEEODaOT0_, symObjAddr: 0xF980, symBinAddr: 0x1000123E8, symSize: 0x24 }
  - { offset: 0x3C7CA, size: 0x8, addend: 0x0, symName: __ZNSt3__116__variant_detail8__access7__union9__get_altB8ne180100IRKNS0_7__unionILNS0_6_TraitE0ELm0EJN2sf5Event6ClosedENS7_7ResizedENS7_9FocusLostENS7_11FocusGainedENS7_11TextEnteredENS7_10KeyPressedENS7_11KeyReleasedENS7_18MouseWheelScrolledENS7_18MouseButtonPressedENS7_19MouseButtonReleasedENS7_10MouseMovedENS7_13MouseMovedRawENS7_12MouseEnteredENS7_9MouseLeftENS7_21JoystickButtonPressedENS7_22JoystickButtonReleasedENS7_13JoystickMovedENS7_17JoystickConnectedENS7_20JoystickDisconnectedENS7_10TouchBeganENS7_10TouchMovedENS7_10TouchEndedENS7_13SensorChangedEEEELm14EEEODaOT_NS_16in_place_index_tIXT0_EEE, symObjAddr: 0xF9A4, symBinAddr: 0x10001240C, symSize: 0x24 }
  - { offset: 0x3C80E, size: 0x8, addend: 0x0, symName: __ZNSt3__116__variant_detail8__access7__union9__get_altB8ne180100IRKNS0_7__unionILNS0_6_TraitE0ELm1EJN2sf5Event7ResizedENS7_9FocusLostENS7_11FocusGainedENS7_11TextEnteredENS7_10KeyPressedENS7_11KeyReleasedENS7_18MouseWheelScrolledENS7_18MouseButtonPressedENS7_19MouseButtonReleasedENS7_10MouseMovedENS7_13MouseMovedRawENS7_12MouseEnteredENS7_9MouseLeftENS7_21JoystickButtonPressedENS7_22JoystickButtonReleasedENS7_13JoystickMovedENS7_17JoystickConnectedENS7_20JoystickDisconnectedENS7_10TouchBeganENS7_10TouchMovedENS7_10TouchEndedENS7_13SensorChangedEEEELm13EEEODaOT_NS_16in_place_index_tIXT0_EEE, symObjAddr: 0xF9C8, symBinAddr: 0x100012430, symSize: 0x24 }
  - { offset: 0x3C852, size: 0x8, addend: 0x0, symName: __ZNSt3__116__variant_detail8__access7__union9__get_altB8ne180100IRKNS0_7__unionILNS0_6_TraitE0ELm2EJN2sf5Event9FocusLostENS7_11FocusGainedENS7_11TextEnteredENS7_10KeyPressedENS7_11KeyReleasedENS7_18MouseWheelScrolledENS7_18MouseButtonPressedENS7_19MouseButtonReleasedENS7_10MouseMovedENS7_13MouseMovedRawENS7_12MouseEnteredENS7_9MouseLeftENS7_21JoystickButtonPressedENS7_22JoystickButtonReleasedENS7_13JoystickMovedENS7_17JoystickConnectedENS7_20JoystickDisconnectedENS7_10TouchBeganENS7_10TouchMovedENS7_10TouchEndedENS7_13SensorChangedEEEELm12EEEODaOT_NS_16in_place_index_tIXT0_EEE, symObjAddr: 0xF9EC, symBinAddr: 0x100012454, symSize: 0x24 }
  - { offset: 0x3C896, size: 0x8, addend: 0x0, symName: __ZNSt3__116__variant_detail8__access7__union9__get_altB8ne180100IRKNS0_7__unionILNS0_6_TraitE0ELm3EJN2sf5Event11FocusGainedENS7_11TextEnteredENS7_10KeyPressedENS7_11KeyReleasedENS7_18MouseWheelScrolledENS7_18MouseButtonPressedENS7_19MouseButtonReleasedENS7_10MouseMovedENS7_13MouseMovedRawENS7_12MouseEnteredENS7_9MouseLeftENS7_21JoystickButtonPressedENS7_22JoystickButtonReleasedENS7_13JoystickMovedENS7_17JoystickConnectedENS7_20JoystickDisconnectedENS7_10TouchBeganENS7_10TouchMovedENS7_10TouchEndedENS7_13SensorChangedEEEELm11EEEODaOT_NS_16in_place_index_tIXT0_EEE, symObjAddr: 0xFA10, symBinAddr: 0x100012478, symSize: 0x24 }
  - { offset: 0x3C8DA, size: 0x8, addend: 0x0, symName: __ZNSt3__116__variant_detail8__access7__union9__get_altB8ne180100IRKNS0_7__unionILNS0_6_TraitE0ELm4EJN2sf5Event11TextEnteredENS7_10KeyPressedENS7_11KeyReleasedENS7_18MouseWheelScrolledENS7_18MouseButtonPressedENS7_19MouseButtonReleasedENS7_10MouseMovedENS7_13MouseMovedRawENS7_12MouseEnteredENS7_9MouseLeftENS7_21JoystickButtonPressedENS7_22JoystickButtonReleasedENS7_13JoystickMovedENS7_17JoystickConnectedENS7_20JoystickDisconnectedENS7_10TouchBeganENS7_10TouchMovedENS7_10TouchEndedENS7_13SensorChangedEEEELm10EEEODaOT_NS_16in_place_index_tIXT0_EEE, symObjAddr: 0xFA34, symBinAddr: 0x10001249C, symSize: 0x24 }
  - { offset: 0x3C91E, size: 0x8, addend: 0x0, symName: __ZNSt3__116__variant_detail8__access7__union9__get_altB8ne180100IRKNS0_7__unionILNS0_6_TraitE0ELm5EJN2sf5Event10KeyPressedENS7_11KeyReleasedENS7_18MouseWheelScrolledENS7_18MouseButtonPressedENS7_19MouseButtonReleasedENS7_10MouseMovedENS7_13MouseMovedRawENS7_12MouseEnteredENS7_9MouseLeftENS7_21JoystickButtonPressedENS7_22JoystickButtonReleasedENS7_13JoystickMovedENS7_17JoystickConnectedENS7_20JoystickDisconnectedENS7_10TouchBeganENS7_10TouchMovedENS7_10TouchEndedENS7_13SensorChangedEEEELm9EEEODaOT_NS_16in_place_index_tIXT0_EEE, symObjAddr: 0xFA58, symBinAddr: 0x1000124C0, symSize: 0x24 }
  - { offset: 0x3C962, size: 0x8, addend: 0x0, symName: __ZNSt3__116__variant_detail8__access7__union9__get_altB8ne180100IRKNS0_7__unionILNS0_6_TraitE0ELm6EJN2sf5Event11KeyReleasedENS7_18MouseWheelScrolledENS7_18MouseButtonPressedENS7_19MouseButtonReleasedENS7_10MouseMovedENS7_13MouseMovedRawENS7_12MouseEnteredENS7_9MouseLeftENS7_21JoystickButtonPressedENS7_22JoystickButtonReleasedENS7_13JoystickMovedENS7_17JoystickConnectedENS7_20JoystickDisconnectedENS7_10TouchBeganENS7_10TouchMovedENS7_10TouchEndedENS7_13SensorChangedEEEELm8EEEODaOT_NS_16in_place_index_tIXT0_EEE, symObjAddr: 0xFA7C, symBinAddr: 0x1000124E4, symSize: 0x24 }
  - { offset: 0x3C9A6, size: 0x8, addend: 0x0, symName: __ZNSt3__116__variant_detail8__access7__union9__get_altB8ne180100IRKNS0_7__unionILNS0_6_TraitE0ELm7EJN2sf5Event18MouseWheelScrolledENS7_18MouseButtonPressedENS7_19MouseButtonReleasedENS7_10MouseMovedENS7_13MouseMovedRawENS7_12MouseEnteredENS7_9MouseLeftENS7_21JoystickButtonPressedENS7_22JoystickButtonReleasedENS7_13JoystickMovedENS7_17JoystickConnectedENS7_20JoystickDisconnectedENS7_10TouchBeganENS7_10TouchMovedENS7_10TouchEndedENS7_13SensorChangedEEEELm7EEEODaOT_NS_16in_place_index_tIXT0_EEE, symObjAddr: 0xFAA0, symBinAddr: 0x100012508, symSize: 0x24 }
  - { offset: 0x3C9EA, size: 0x8, addend: 0x0, symName: __ZNSt3__116__variant_detail8__access7__union9__get_altB8ne180100IRKNS0_7__unionILNS0_6_TraitE0ELm8EJN2sf5Event18MouseButtonPressedENS7_19MouseButtonReleasedENS7_10MouseMovedENS7_13MouseMovedRawENS7_12MouseEnteredENS7_9MouseLeftENS7_21JoystickButtonPressedENS7_22JoystickButtonReleasedENS7_13JoystickMovedENS7_17JoystickConnectedENS7_20JoystickDisconnectedENS7_10TouchBeganENS7_10TouchMovedENS7_10TouchEndedENS7_13SensorChangedEEEELm6EEEODaOT_NS_16in_place_index_tIXT0_EEE, symObjAddr: 0xFAC4, symBinAddr: 0x10001252C, symSize: 0x24 }
  - { offset: 0x3CA2E, size: 0x8, addend: 0x0, symName: __ZNSt3__116__variant_detail8__access7__union9__get_altB8ne180100IRKNS0_7__unionILNS0_6_TraitE0ELm9EJN2sf5Event19MouseButtonReleasedENS7_10MouseMovedENS7_13MouseMovedRawENS7_12MouseEnteredENS7_9MouseLeftENS7_21JoystickButtonPressedENS7_22JoystickButtonReleasedENS7_13JoystickMovedENS7_17JoystickConnectedENS7_20JoystickDisconnectedENS7_10TouchBeganENS7_10TouchMovedENS7_10TouchEndedENS7_13SensorChangedEEEELm5EEEODaOT_NS_16in_place_index_tIXT0_EEE, symObjAddr: 0xFAE8, symBinAddr: 0x100012550, symSize: 0x24 }
  - { offset: 0x3CA72, size: 0x8, addend: 0x0, symName: __ZNSt3__116__variant_detail8__access7__union9__get_altB8ne180100IRKNS0_7__unionILNS0_6_TraitE0ELm10EJN2sf5Event10MouseMovedENS7_13MouseMovedRawENS7_12MouseEnteredENS7_9MouseLeftENS7_21JoystickButtonPressedENS7_22JoystickButtonReleasedENS7_13JoystickMovedENS7_17JoystickConnectedENS7_20JoystickDisconnectedENS7_10TouchBeganENS7_10TouchMovedENS7_10TouchEndedENS7_13SensorChangedEEEELm4EEEODaOT_NS_16in_place_index_tIXT0_EEE, symObjAddr: 0xFB0C, symBinAddr: 0x100012574, symSize: 0x24 }
  - { offset: 0x3CAB6, size: 0x8, addend: 0x0, symName: __ZNSt3__116__variant_detail8__access7__union9__get_altB8ne180100IRKNS0_7__unionILNS0_6_TraitE0ELm11EJN2sf5Event13MouseMovedRawENS7_12MouseEnteredENS7_9MouseLeftENS7_21JoystickButtonPressedENS7_22JoystickButtonReleasedENS7_13JoystickMovedENS7_17JoystickConnectedENS7_20JoystickDisconnectedENS7_10TouchBeganENS7_10TouchMovedENS7_10TouchEndedENS7_13SensorChangedEEEELm3EEEODaOT_NS_16in_place_index_tIXT0_EEE, symObjAddr: 0xFB30, symBinAddr: 0x100012598, symSize: 0x24 }
  - { offset: 0x3CAFA, size: 0x8, addend: 0x0, symName: __ZNSt3__116__variant_detail8__access7__union9__get_altB8ne180100IRKNS0_7__unionILNS0_6_TraitE0ELm12EJN2sf5Event12MouseEnteredENS7_9MouseLeftENS7_21JoystickButtonPressedENS7_22JoystickButtonReleasedENS7_13JoystickMovedENS7_17JoystickConnectedENS7_20JoystickDisconnectedENS7_10TouchBeganENS7_10TouchMovedENS7_10TouchEndedENS7_13SensorChangedEEEELm2EEEODaOT_NS_16in_place_index_tIXT0_EEE, symObjAddr: 0xFB54, symBinAddr: 0x1000125BC, symSize: 0x24 }
  - { offset: 0x3CB3E, size: 0x8, addend: 0x0, symName: __ZNSt3__116__variant_detail8__access7__union9__get_altB8ne180100IRKNS0_7__unionILNS0_6_TraitE0ELm13EJN2sf5Event9MouseLeftENS7_21JoystickButtonPressedENS7_22JoystickButtonReleasedENS7_13JoystickMovedENS7_17JoystickConnectedENS7_20JoystickDisconnectedENS7_10TouchBeganENS7_10TouchMovedENS7_10TouchEndedENS7_13SensorChangedEEEELm1EEEODaOT_NS_16in_place_index_tIXT0_EEE, symObjAddr: 0xFB78, symBinAddr: 0x1000125E0, symSize: 0x24 }
  - { offset: 0x3CB82, size: 0x8, addend: 0x0, symName: __ZNSt3__116__variant_detail8__access7__union9__get_altB8ne180100IRKNS0_7__unionILNS0_6_TraitE0ELm14EJN2sf5Event21JoystickButtonPressedENS7_22JoystickButtonReleasedENS7_13JoystickMovedENS7_17JoystickConnectedENS7_20JoystickDisconnectedENS7_10TouchBeganENS7_10TouchMovedENS7_10TouchEndedENS7_13SensorChangedEEEEEEODaOT_NS_16in_place_index_tILm0EEE, symObjAddr: 0xFB9C, symBinAddr: 0x100012604, symSize: 0x14 }
  - { offset: 0x3CBBC, size: 0x8, addend: 0x0, symName: __ZNSt3__16vectorIiNS_9allocatorIiEEE11__make_iterB8ne180100EPi, symObjAddr: 0xFBB0, symBinAddr: 0x100012618, symSize: 0x30 }
  - { offset: 0x3CBF2, size: 0x8, addend: 0x0, symName: __ZNSt3__111__wrap_iterIPiEC1B8ne180100ES1_, symObjAddr: 0xFBE0, symBinAddr: 0x100012648, symSize: 0x34 }
  - { offset: 0x3CC2B, size: 0x8, addend: 0x0, symName: __ZNSt3__111__wrap_iterIPiEC2B8ne180100ES1_, symObjAddr: 0xFC14, symBinAddr: 0x10001267C, symSize: 0x20 }
  - { offset: 0x3CC64, size: 0x8, addend: 0x0, symName: __ZNSt3__118__unwrap_iter_implINS_11__wrap_iterIPiEELb1EE8__rewrapB8ne180100ES3_S2_, symObjAddr: 0xFD34, symBinAddr: 0x10001279C, symSize: 0x5C }
  - { offset: 0x3CC97, size: 0x8, addend: 0x0, symName: __ZNKSt3__111__wrap_iterIPiEplB8ne180100El, symObjAddr: 0xFD90, symBinAddr: 0x1000127F8, symSize: 0x3C }
  - { offset: 0x3CCDB, size: 0x8, addend: 0x0, symName: __ZNSt3__111__wrap_iterIPiEpLB8ne180100El, symObjAddr: 0xFDF0, symBinAddr: 0x100012858, symSize: 0x28 }
  - { offset: 0x3CD1B, size: 0x8, addend: 0x0, symName: __ZNSt3__119__to_address_helperINS_11__wrap_iterIPiEEvE6__callB8ne180100ERKS3_, symObjAddr: 0xFE18, symBinAddr: 0x100012880, symSize: 0x30 }
  - { offset: 0x3CD3F, size: 0x8, addend: 0x0, symName: __ZNSt3__114pointer_traitsINS_11__wrap_iterIPiEEE10to_addressB8ne180100ES3_, symObjAddr: 0xFE48, symBinAddr: 0x1000128B0, symSize: 0x2C }
  - { offset: 0x3CD6D, size: 0x8, addend: 0x0, symName: __ZNKSt3__110__identityclB8ne180100IRiEEOT_S4_, symObjAddr: 0xFEA0, symBinAddr: 0x100012908, symSize: 0x18 }
  - { offset: 0x3CDAB, size: 0x8, addend: 0x0, symName: __ZNSt3__118__unwrap_iter_implINS_11__wrap_iterIPiEELb1EE8__unwrapB8ne180100ES3_, symObjAddr: 0xFEB8, symBinAddr: 0x100012920, symSize: 0x28 }
  - { offset: 0x3CDCF, size: 0x8, addend: 0x0, symName: __ZNSt3__16vectorI6PlayerNS_9allocatorIS1_EEE9__end_capB8ne180100Ev, symObjAddr: 0xFEE0, symBinAddr: 0x100012948, symSize: 0x28 }
  - { offset: 0x3CDF5, size: 0x8, addend: 0x0, symName: __ZNSt3__16vectorI6PlayerNS_9allocatorIS1_EEE22__construct_one_at_endB8ne180100IJRfS6_RiRjRNS_10shared_ptrIN2sf7TextureEEEEEEvDpOT_, symObjAddr: 0xFF08, symBinAddr: 0x100012970, symSize: 0xB0 }
  - { offset: 0x3CE9A, size: 0x8, addend: 0x0, symName: __ZNSt3__16vectorI6PlayerNS_9allocatorIS1_EEE24__emplace_back_slow_pathIJRfS6_RiRjRNS_10shared_ptrIN2sf7TextureEEEEEEPS1_DpOT_, symObjAddr: 0xFFB8, symBinAddr: 0x100012A20, symSize: 0x108 }
  - { offset: 0x3CF51, size: 0x8, addend: 0x0, symName: __ZNSt3__117__compressed_pairIP6PlayerNS_9allocatorIS1_EEE5firstB8ne180100Ev, symObjAddr: 0x100C0, symBinAddr: 0x100012B28, symSize: 0x24 }
  - { offset: 0x3CF77, size: 0x8, addend: 0x0, symName: __ZNSt3__122__compressed_pair_elemIP6PlayerLi0ELb0EE5__getB8ne180100Ev, symObjAddr: 0x100E4, symBinAddr: 0x100012B4C, symSize: 0x14 }
  - { offset: 0x3CFB8, size: 0x8, addend: 0x0, symName: __ZNSt3__16vectorI6PlayerNS_9allocatorIS1_EEE21_ConstructTransactionC1B8ne180100ERS4_m, symObjAddr: 0x100F8, symBinAddr: 0x100012B60, symSize: 0x3C }
  - { offset: 0x3D002, size: 0x8, addend: 0x0, symName: __ZNSt3__116allocator_traitsINS_9allocatorI6PlayerEEE9constructB8ne180100IS2_JRfS6_RiRjRNS_10shared_ptrIN2sf7TextureEEEEvEEvRS3_PT_DpOT0_, symObjAddr: 0x10134, symBinAddr: 0x100012B9C, symSize: 0x54 }
  - { offset: 0x3D0B0, size: 0x8, addend: 0x0, symName: __ZNSt3__16vectorI6PlayerNS_9allocatorIS1_EEE21_ConstructTransactionD1B8ne180100Ev, symObjAddr: 0x10188, symBinAddr: 0x100012BF0, symSize: 0x2C }
  - { offset: 0x3D0DA, size: 0x8, addend: 0x0, symName: __ZNSt3__16vectorI6PlayerNS_9allocatorIS1_EEE21_ConstructTransactionC2B8ne180100ERS4_m, symObjAddr: 0x101B4, symBinAddr: 0x100012C1C, symSize: 0x4C }
  - { offset: 0x3D124, size: 0x8, addend: 0x0, symName: __ZNSt3__19allocatorI6PlayerE9constructB8ne180100IS1_JRfS4_RiRjRNS_10shared_ptrIN2sf7TextureEEEEEEvPT_DpOT0_, symObjAddr: 0x10200, symBinAddr: 0x100012C68, symSize: 0xC4 }
  - { offset: 0x3D1CC, size: 0x8, addend: 0x0, symName: __ZNSt3__16vectorI6PlayerNS_9allocatorIS1_EEE21_ConstructTransactionD2B8ne180100Ev, symObjAddr: 0x102C4, symBinAddr: 0x100012D2C, symSize: 0x20 }
  - { offset: 0x3D1F6, size: 0x8, addend: 0x0, symName: __ZNKSt3__16vectorI6PlayerNS_9allocatorIS1_EEE11__recommendB8ne180100Em, symObjAddr: 0x102E4, symBinAddr: 0x100012D4C, symSize: 0xB4 }
  - { offset: 0x3D24E, size: 0x8, addend: 0x0, symName: __ZNSt3__114__split_bufferI6PlayerRNS_9allocatorIS1_EEEC1EmmS4_, symObjAddr: 0x10398, symBinAddr: 0x100012E00, symSize: 0x44 }
  - { offset: 0x3D2A7, size: 0x8, addend: 0x0, symName: __ZNSt3__114__split_bufferI6PlayerRNS_9allocatorIS1_EEED1Ev, symObjAddr: 0x104EC, symBinAddr: 0x100012F54, symSize: 0x2C }
  - { offset: 0x3D2D3, size: 0x8, addend: 0x0, symName: __ZNKSt3__16vectorI6PlayerNS_9allocatorIS1_EEE8max_sizeEv, symObjAddr: 0x10518, symBinAddr: 0x100012F80, symSize: 0x60 }
  - { offset: 0x3D2FB, size: 0x8, addend: 0x0, symName: __ZNKSt3__16vectorI6PlayerNS_9allocatorIS1_EEE20__throw_length_errorB8ne180100Ev, symObjAddr: 0x10578, symBinAddr: 0x100012FE0, symSize: 0x1C }
  - { offset: 0x3D32C, size: 0x8, addend: 0x0, symName: __ZNSt3__116allocator_traitsINS_9allocatorI6PlayerEEE8max_sizeB8ne180100IS3_vEEmRKS3_, symObjAddr: 0x10594, symBinAddr: 0x100012FFC, symSize: 0x24 }
  - { offset: 0x3D35B, size: 0x8, addend: 0x0, symName: __ZNKSt3__16vectorI6PlayerNS_9allocatorIS1_EEE7__allocB8ne180100Ev, symObjAddr: 0x105B8, symBinAddr: 0x100013020, symSize: 0x28 }
  - { offset: 0x3D381, size: 0x8, addend: 0x0, symName: __ZNKSt3__19allocatorI6PlayerE8max_sizeB8ne180100Ev, symObjAddr: 0x105E0, symBinAddr: 0x100013048, symSize: 0x20 }
  - { offset: 0x3D3A7, size: 0x8, addend: 0x0, symName: __ZNKSt3__117__compressed_pairIP6PlayerNS_9allocatorIS1_EEE6secondB8ne180100Ev, symObjAddr: 0x10600, symBinAddr: 0x100013068, symSize: 0x24 }
  - { offset: 0x3D3CD, size: 0x8, addend: 0x0, symName: __ZNKSt3__122__compressed_pair_elemINS_9allocatorI6PlayerEELi1ELb1EE5__getB8ne180100Ev, symObjAddr: 0x10624, symBinAddr: 0x10001308C, symSize: 0x14 }
  - { offset: 0x3D3F3, size: 0x8, addend: 0x0, symName: __ZNSt3__114__split_bufferI6PlayerRNS_9allocatorIS1_EEEC2EmmS4_, symObjAddr: 0x10638, symBinAddr: 0x1000130A0, symSize: 0xE0 }
  - { offset: 0x3D46B, size: 0x8, addend: 0x0, symName: __ZNSt3__117__compressed_pairIP6PlayerRNS_9allocatorIS1_EEEC1B8ne180100IDnS5_EEOT_OT0_, symObjAddr: 0x10718, symBinAddr: 0x100013180, symSize: 0x3C }
  - { offset: 0x3D4C5, size: 0x8, addend: 0x0, symName: __ZNSt3__114__split_bufferI6PlayerRNS_9allocatorIS1_EEE7__allocB8ne180100Ev, symObjAddr: 0x10794, symBinAddr: 0x1000131FC, symSize: 0x28 }
  - { offset: 0x3D4EB, size: 0x8, addend: 0x0, symName: __ZNSt3__114__split_bufferI6PlayerRNS_9allocatorIS1_EEE9__end_capB8ne180100Ev, symObjAddr: 0x107BC, symBinAddr: 0x100013224, symSize: 0x28 }
  - { offset: 0x3D511, size: 0x8, addend: 0x0, symName: __ZNSt3__117__compressed_pairIP6PlayerRNS_9allocatorIS1_EEEC2B8ne180100IDnS5_EEOT_OT0_, symObjAddr: 0x107E4, symBinAddr: 0x10001324C, symSize: 0x48 }
  - { offset: 0x3D56B, size: 0x8, addend: 0x0, symName: __ZNSt3__122__compressed_pair_elemIRNS_9allocatorI6PlayerEELi1ELb0EEC2B8ne180100IS4_vEEOT_, symObjAddr: 0x1082C, symBinAddr: 0x100013294, symSize: 0x20 }
  - { offset: 0x3D5AE, size: 0x8, addend: 0x0, symName: __ZNSt3__19allocatorI6PlayerE8allocateB8ne180100Em, symObjAddr: 0x1084C, symBinAddr: 0x1000132B4, symSize: 0x5C }
  - { offset: 0x3D5E3, size: 0x8, addend: 0x0, symName: __ZNSt3__117__compressed_pairIP6PlayerRNS_9allocatorIS1_EEE6secondB8ne180100Ev, symObjAddr: 0x108A8, symBinAddr: 0x100013310, symSize: 0x28 }
  - { offset: 0x3D609, size: 0x8, addend: 0x0, symName: __ZNSt3__122__compressed_pair_elemIRNS_9allocatorI6PlayerEELi1ELb0EE5__getB8ne180100Ev, symObjAddr: 0x108D0, symBinAddr: 0x100013338, symSize: 0x18 }
  - { offset: 0x3D62F, size: 0x8, addend: 0x0, symName: __ZNSt3__117__compressed_pairIP6PlayerRNS_9allocatorIS1_EEE5firstB8ne180100Ev, symObjAddr: 0x108E8, symBinAddr: 0x100013350, symSize: 0x24 }
  - { offset: 0x3D655, size: 0x8, addend: 0x0, symName: __ZNSt3__116reverse_iteratorIP6PlayerEC1B8ne180100ES2_, symObjAddr: 0x10A38, symBinAddr: 0x1000134A0, symSize: 0x34 }
  - { offset: 0x3D68E, size: 0x8, addend: 0x0, symName: __ZNKSt3__116reverse_iteratorIP6PlayerE4baseB8ne180100Ev, symObjAddr: 0x10A6C, symBinAddr: 0x1000134D4, symSize: 0x18 }
  - { offset: 0x3D6B4, size: 0x8, addend: 0x0, symName: __ZNKSt3__16vectorI6PlayerNS_9allocatorIS1_EEE14__annotate_newB8ne180100Em, symObjAddr: 0x10AC0, symBinAddr: 0x100013528, symSize: 0x14 }
  - { offset: 0x3D6EA, size: 0x8, addend: 0x0, symName: __ZNSt3__129_AllocatorDestroyRangeReverseINS_9allocatorI6PlayerEENS_16reverse_iteratorIPS2_EEEC1B8ne180100ERS3_RS6_S9_, symObjAddr: 0x10B20, symBinAddr: 0x100013588, symSize: 0x44 }
  - { offset: 0x3D74A, size: 0x8, addend: 0x0, symName: __ZNSt3__116allocator_traitsINS_9allocatorI6PlayerEEE9constructB8ne180100IS2_JS2_EvEEvRS3_PT_DpOT0_, symObjAddr: 0x10BAC, symBinAddr: 0x100013614, symSize: 0x34 }
  - { offset: 0x3D7A4, size: 0x8, addend: 0x0, symName: __ZNKSt3__116reverse_iteratorIP6PlayerEdeB8ne180100Ev, symObjAddr: 0x10C04, symBinAddr: 0x10001366C, symSize: 0x28 }
  - { offset: 0x3D7D9, size: 0x8, addend: 0x0, symName: __ZNSt3__116reverse_iteratorIP6PlayerEppB8ne180100Ev, symObjAddr: 0x10C2C, symBinAddr: 0x100013694, symSize: 0x20 }
  - { offset: 0x3D7FF, size: 0x8, addend: 0x0, symName: __ZNSt3__128__exception_guard_exceptionsINS_29_AllocatorDestroyRangeReverseINS_9allocatorI6PlayerEENS_16reverse_iteratorIPS3_EEEEE10__completeB8ne180100Ev, symObjAddr: 0x10C4C, symBinAddr: 0x1000136B4, symSize: 0x1C }
  - { offset: 0x3D825, size: 0x8, addend: 0x0, symName: __ZNSt3__128__exception_guard_exceptionsINS_29_AllocatorDestroyRangeReverseINS_9allocatorI6PlayerEENS_16reverse_iteratorIPS3_EEEEED1B8ne180100Ev, symObjAddr: 0x10C68, symBinAddr: 0x1000136D0, symSize: 0x2C }
  - { offset: 0x3D84F, size: 0x8, addend: 0x0, symName: __ZNSt3__128__exception_guard_exceptionsINS_29_AllocatorDestroyRangeReverseINS_9allocatorI6PlayerEENS_16reverse_iteratorIPS3_EEEEEC1B8ne180100ES8_, symObjAddr: 0x10C94, symBinAddr: 0x1000136FC, symSize: 0x34 }
  - { offset: 0x3D889, size: 0x8, addend: 0x0, symName: __ZNSt3__128__exception_guard_exceptionsINS_29_AllocatorDestroyRangeReverseINS_9allocatorI6PlayerEENS_16reverse_iteratorIPS3_EEEEEC2B8ne180100ES8_, symObjAddr: 0x10CC8, symBinAddr: 0x100013730, symSize: 0x30 }
  - { offset: 0x3D8C3, size: 0x8, addend: 0x0, symName: __ZNSt3__129_AllocatorDestroyRangeReverseINS_9allocatorI6PlayerEENS_16reverse_iteratorIPS2_EEEC2B8ne180100ERS3_RS6_S9_, symObjAddr: 0x10CF8, symBinAddr: 0x100013760, symSize: 0x38 }
  - { offset: 0x3D91D, size: 0x8, addend: 0x0, symName: __ZNSt3__19allocatorI6PlayerE9constructB8ne180100IS1_JS1_EEEvPT_DpOT0_, symObjAddr: 0x10D30, symBinAddr: 0x100013798, symSize: 0x30 }
  - { offset: 0x3D975, size: 0x8, addend: 0x0, symName: __ZN6PlayerC1EOS_, symObjAddr: 0x10D60, symBinAddr: 0x1000137C8, symSize: 0x34 }
  - { offset: 0x3D9AA, size: 0x8, addend: 0x0, symName: __ZN6PlayerC2EOS_, symObjAddr: 0x10D94, symBinAddr: 0x1000137FC, symSize: 0xC0 }
  - { offset: 0x3D9DF, size: 0x8, addend: 0x0, symName: __ZNSt3__18optionalIN2sf6SpriteEEC1B8ne180100EOS3_, symObjAddr: 0x10E54, symBinAddr: 0x1000138BC, symSize: 0x34 }
  - { offset: 0x3DA15, size: 0x8, addend: 0x0, symName: __ZNSt3__18optionalIN2sf6SpriteEEC2B8ne180100EOS3_, symObjAddr: 0x10E88, symBinAddr: 0x1000138F0, symSize: 0x34 }
  - { offset: 0x3DA4B, size: 0x8, addend: 0x0, symName: __ZNSt3__127__optional_move_assign_baseIN2sf6SpriteELb0EEC2B8ne180100EOS3_, symObjAddr: 0x10EBC, symBinAddr: 0x100013924, symSize: 0x34 }
  - { offset: 0x3DA81, size: 0x8, addend: 0x0, symName: __ZNSt3__127__optional_copy_assign_baseIN2sf6SpriteELb0EEC2B8ne180100EOS3_, symObjAddr: 0x10EF0, symBinAddr: 0x100013958, symSize: 0x34 }
  - { offset: 0x3DAB7, size: 0x8, addend: 0x0, symName: __ZNSt3__120__optional_move_baseIN2sf6SpriteELb0EEC2B8ne180100EOS3_, symObjAddr: 0x10F24, symBinAddr: 0x10001398C, symSize: 0x44 }
  - { offset: 0x3DAF1, size: 0x8, addend: 0x0, symName: __ZNSt3__120__optional_copy_baseIN2sf6SpriteELb0EEC2B8ne180100Ev, symObjAddr: 0x10F68, symBinAddr: 0x1000139D0, symSize: 0x2C }
  - { offset: 0x3DB1B, size: 0x8, addend: 0x0, symName: __ZNSt3__123__optional_storage_baseIN2sf6SpriteELb0EE16__construct_fromB8ne180100INS_20__optional_move_baseIS2_Lb0EEEEEvOT_, symObjAddr: 0x10F94, symBinAddr: 0x1000139FC, symSize: 0x50 }
  - { offset: 0x3DB5A, size: 0x8, addend: 0x0, symName: __ZNSt3__123__optional_storage_baseIN2sf6SpriteELb0EEC2Ev, symObjAddr: 0x10FE4, symBinAddr: 0x100013A4C, symSize: 0x2C }
  - { offset: 0x3DB87, size: 0x8, addend: 0x0, symName: __ZNSt3__124__optional_destruct_baseIN2sf6SpriteELb0EEC2B8ne180100Ev, symObjAddr: 0x11010, symBinAddr: 0x100013A78, symSize: 0x1C }
  - { offset: 0x3DBB1, size: 0x8, addend: 0x0, symName: __ZNKSt3__123__optional_storage_baseIN2sf6SpriteELb0EE9has_valueB8ne180100Ev, symObjAddr: 0x1102C, symBinAddr: 0x100013A94, symSize: 0x1C }
  - { offset: 0x3DBD7, size: 0x8, addend: 0x0, symName: __ZNSt3__123__optional_storage_baseIN2sf6SpriteELb0EE11__constructB8ne180100IJS2_EEEvDpOT_, symObjAddr: 0x11048, symBinAddr: 0x100013AB0, symSize: 0x3C }
  - { offset: 0x3DC18, size: 0x8, addend: 0x0, symName: __ZNOSt3__123__optional_storage_baseIN2sf6SpriteELb0EE5__getB8ne180100Ev, symObjAddr: 0x11084, symBinAddr: 0x100013AEC, symSize: 0x14 }
  - { offset: 0x3DC44, size: 0x8, addend: 0x0, symName: __ZNSt3__119__to_address_helperINS_16reverse_iteratorIP6PlayerEEvE6__callB8ne180100ERKS4_, symObjAddr: 0x110CC, symBinAddr: 0x100013B34, symSize: 0x38 }
  - { offset: 0x3DC68, size: 0x8, addend: 0x0, symName: __ZNKSt3__116reverse_iteratorIP6PlayerEptB8ne180100Ev, symObjAddr: 0x11104, symBinAddr: 0x100013B6C, symSize: 0x24 }
  - { offset: 0x3DC8E, size: 0x8, addend: 0x0, symName: __ZNSt3__128__exception_guard_exceptionsINS_29_AllocatorDestroyRangeReverseINS_9allocatorI6PlayerEENS_16reverse_iteratorIPS3_EEEEED2B8ne180100Ev, symObjAddr: 0x11128, symBinAddr: 0x100013B90, symSize: 0x50 }
  - { offset: 0x3DCB8, size: 0x8, addend: 0x0, symName: __ZNKSt3__129_AllocatorDestroyRangeReverseINS_9allocatorI6PlayerEENS_16reverse_iteratorIPS2_EEEclB8ne180100Ev, symObjAddr: 0x11178, symBinAddr: 0x100013BE0, symSize: 0xB4 }
  - { offset: 0x3DCDF, size: 0x8, addend: 0x0, symName: __ZNSt3__116reverse_iteratorINS0_IP6PlayerEEEC1B8ne180100ES3_, symObjAddr: 0x1129C, symBinAddr: 0x100013D04, symSize: 0x3C }
  - { offset: 0x3DD18, size: 0x8, addend: 0x0, symName: __ZNSt3__116reverse_iteratorINS0_IP6PlayerEEEppB8ne180100Ev, symObjAddr: 0x1135C, symBinAddr: 0x100013DC4, symSize: 0x30 }
  - { offset: 0x3DD3E, size: 0x8, addend: 0x0, symName: __ZNKSt3__116reverse_iteratorINS0_IP6PlayerEEE4baseB8ne180100Ev, symObjAddr: 0x1138C, symBinAddr: 0x100013DF4, symSize: 0x24 }
  - { offset: 0x3DD6A, size: 0x8, addend: 0x0, symName: __ZNSt3__119__to_address_helperINS_16reverse_iteratorINS1_IP6PlayerEEEEvE6__callB8ne180100ERKS5_, symObjAddr: 0x113B0, symBinAddr: 0x100013E18, symSize: 0x38 }
  - { offset: 0x3DD8E, size: 0x8, addend: 0x0, symName: __ZNKSt3__116reverse_iteratorINS0_IP6PlayerEEEptB8ne180100Ev, symObjAddr: 0x113E8, symBinAddr: 0x100013E50, symSize: 0x24 }
  - { offset: 0x3DDB4, size: 0x8, addend: 0x0, symName: __ZNKSt3__116reverse_iteratorINS0_IP6PlayerEEEdeB8ne180100Ev, symObjAddr: 0x1140C, symBinAddr: 0x100013E74, symSize: 0x34 }
  - { offset: 0x3DDE9, size: 0x8, addend: 0x0, symName: __ZNSt3__116reverse_iteratorIP6PlayerEmmB8ne180100Ev, symObjAddr: 0x11440, symBinAddr: 0x100013EA8, symSize: 0x20 }
  - { offset: 0x3DE0F, size: 0x8, addend: 0x0, symName: __ZNSt3__116reverse_iteratorINS0_IP6PlayerEEEC2B8ne180100ES3_, symObjAddr: 0x11460, symBinAddr: 0x100013EC8, symSize: 0x2C }
  - { offset: 0x3DE48, size: 0x8, addend: 0x0, symName: __ZNSt3__116reverse_iteratorIP6PlayerEC2B8ne180100ES2_, symObjAddr: 0x1148C, symBinAddr: 0x100013EF4, symSize: 0x28 }
  - { offset: 0x3DE81, size: 0x8, addend: 0x0, symName: __ZNSt3__114__split_bufferI6PlayerRNS_9allocatorIS1_EEED2Ev, symObjAddr: 0x114B4, symBinAddr: 0x100013F1C, symSize: 0x8C }
  - { offset: 0x3DEAD, size: 0x8, addend: 0x0, symName: __ZNSt3__114__split_bufferI6PlayerRNS_9allocatorIS1_EEE5clearB8ne180100Ev, symObjAddr: 0x11540, symBinAddr: 0x100013FA8, symSize: 0x28 }
  - { offset: 0x3DED3, size: 0x8, addend: 0x0, symName: __ZNKSt3__114__split_bufferI6PlayerRNS_9allocatorIS1_EEE8capacityB8ne180100Ev, symObjAddr: 0x11568, symBinAddr: 0x100013FD0, symSize: 0x40 }
  - { offset: 0x3DEF9, size: 0x8, addend: 0x0, symName: __ZNSt3__114__split_bufferI6PlayerRNS_9allocatorIS1_EEE17__destruct_at_endB8ne180100EPS1_, symObjAddr: 0x115A8, symBinAddr: 0x100014010, symSize: 0x2C }
  - { offset: 0x3DF2E, size: 0x8, addend: 0x0, symName: __ZNSt3__114__split_bufferI6PlayerRNS_9allocatorIS1_EEE17__destruct_at_endB8ne180100EPS1_NS_17integral_constantIbLb0EEE, symObjAddr: 0x115D4, symBinAddr: 0x10001403C, symSize: 0x80 }
  - { offset: 0x3DF70, size: 0x8, addend: 0x0, symName: __ZNKSt3__114__split_bufferI6PlayerRNS_9allocatorIS1_EEE9__end_capB8ne180100Ev, symObjAddr: 0x11654, symBinAddr: 0x1000140BC, symSize: 0x28 }
  - { offset: 0x3DF96, size: 0x8, addend: 0x0, symName: __ZNKSt3__117__compressed_pairIP6PlayerRNS_9allocatorIS1_EEE5firstB8ne180100Ev, symObjAddr: 0x1167C, symBinAddr: 0x1000140E4, symSize: 0x24 }
  - { offset: 0x3DFBC, size: 0x8, addend: 0x0, symName: __ZNSt3__16vectorIiNS_9allocatorIiEEE9__end_capB8ne180100Ev, symObjAddr: 0x116A0, symBinAddr: 0x100014108, symSize: 0x28 }
  - { offset: 0x3DFE8, size: 0x8, addend: 0x0, symName: __ZNSt3__16vectorIiNS_9allocatorIiEEE22__construct_one_at_endB8ne180100IJiEEEvDpOT_, symObjAddr: 0x116C8, symBinAddr: 0x100014130, symSize: 0x90 }
  - { offset: 0x3E039, size: 0x8, addend: 0x0, symName: __ZNSt3__16vectorIiNS_9allocatorIiEEE21__push_back_slow_pathIiEEPiOT_, symObjAddr: 0x11758, symBinAddr: 0x1000141C0, symSize: 0xE8 }
  - { offset: 0x3E09A, size: 0x8, addend: 0x0, symName: __ZNSt3__117__compressed_pairIPiNS_9allocatorIiEEE5firstB8ne180100Ev, symObjAddr: 0x11840, symBinAddr: 0x1000142A8, symSize: 0x24 }
  - { offset: 0x3E0C0, size: 0x8, addend: 0x0, symName: __ZNSt3__122__compressed_pair_elemIPiLi0ELb0EE5__getB8ne180100Ev, symObjAddr: 0x11864, symBinAddr: 0x1000142CC, symSize: 0x14 }
  - { offset: 0x3E101, size: 0x8, addend: 0x0, symName: __ZNSt3__16vectorIiNS_9allocatorIiEEE21_ConstructTransactionC1B8ne180100ERS3_m, symObjAddr: 0x11878, symBinAddr: 0x1000142E0, symSize: 0x3C }
  - { offset: 0x3E14B, size: 0x8, addend: 0x0, symName: __ZNSt3__116allocator_traitsINS_9allocatorIiEEE9constructB8ne180100IiJiEvEEvRS2_PT_DpOT0_, symObjAddr: 0x118B4, symBinAddr: 0x10001431C, symSize: 0x34 }
  - { offset: 0x3E1A5, size: 0x8, addend: 0x0, symName: __ZNSt3__16vectorIiNS_9allocatorIiEEE21_ConstructTransactionD1B8ne180100Ev, symObjAddr: 0x118E8, symBinAddr: 0x100014350, symSize: 0x2C }
  - { offset: 0x3E1CF, size: 0x8, addend: 0x0, symName: __ZNSt3__16vectorIiNS_9allocatorIiEEE21_ConstructTransactionC2B8ne180100ERS3_m, symObjAddr: 0x11914, symBinAddr: 0x10001437C, symSize: 0x44 }
  - { offset: 0x3E219, size: 0x8, addend: 0x0, symName: __ZNSt3__19allocatorIiE9constructB8ne180100IiJiEEEvPT_DpOT0_, symObjAddr: 0x11958, symBinAddr: 0x1000143C0, symSize: 0x28 }
  - { offset: 0x3E271, size: 0x8, addend: 0x0, symName: __ZNSt3__16vectorIiNS_9allocatorIiEEE21_ConstructTransactionD2B8ne180100Ev, symObjAddr: 0x11980, symBinAddr: 0x1000143E8, symSize: 0x20 }
  - { offset: 0x3E29B, size: 0x8, addend: 0x0, symName: __ZNKSt3__16vectorIiNS_9allocatorIiEEE11__recommendB8ne180100Em, symObjAddr: 0x119A0, symBinAddr: 0x100014408, symSize: 0xB4 }
  - { offset: 0x3E2F3, size: 0x8, addend: 0x0, symName: __ZNKSt3__16vectorIiNS_9allocatorIiEEE4sizeB8ne180100Ev, symObjAddr: 0x11A54, symBinAddr: 0x1000144BC, symSize: 0x28 }
  - { offset: 0x3E319, size: 0x8, addend: 0x0, symName: __ZNSt3__114__split_bufferIiRNS_9allocatorIiEEEC1EmmS3_, symObjAddr: 0x11A7C, symBinAddr: 0x1000144E4, symSize: 0x44 }
  - { offset: 0x3E372, size: 0x8, addend: 0x0, symName: __ZNSt3__114__split_bufferIiRNS_9allocatorIiEEED1Ev, symObjAddr: 0x11BD0, symBinAddr: 0x100014638, symSize: 0x2C }
  - { offset: 0x3E39E, size: 0x8, addend: 0x0, symName: __ZNKSt3__16vectorIiNS_9allocatorIiEEE8max_sizeEv, symObjAddr: 0x11BFC, symBinAddr: 0x100014664, symSize: 0x60 }
  - { offset: 0x3E3C6, size: 0x8, addend: 0x0, symName: __ZNKSt3__16vectorIiNS_9allocatorIiEEE20__throw_length_errorB8ne180100Ev, symObjAddr: 0x11C5C, symBinAddr: 0x1000146C4, symSize: 0x1C }
  - { offset: 0x3E3F7, size: 0x8, addend: 0x0, symName: __ZNSt3__116allocator_traitsINS_9allocatorIiEEE8max_sizeB8ne180100IS2_vEEmRKS2_, symObjAddr: 0x11C78, symBinAddr: 0x1000146E0, symSize: 0x24 }
  - { offset: 0x3E426, size: 0x8, addend: 0x0, symName: __ZNKSt3__16vectorIiNS_9allocatorIiEEE7__allocB8ne180100Ev, symObjAddr: 0x11C9C, symBinAddr: 0x100014704, symSize: 0x28 }
  - { offset: 0x3E44C, size: 0x8, addend: 0x0, symName: __ZNKSt3__19allocatorIiE8max_sizeB8ne180100Ev, symObjAddr: 0x11CC4, symBinAddr: 0x10001472C, symSize: 0x14 }
  - { offset: 0x3E472, size: 0x8, addend: 0x0, symName: __ZNKSt3__117__compressed_pairIPiNS_9allocatorIiEEE6secondB8ne180100Ev, symObjAddr: 0x11CD8, symBinAddr: 0x100014740, symSize: 0x24 }
  - { offset: 0x3E498, size: 0x8, addend: 0x0, symName: __ZNKSt3__122__compressed_pair_elemINS_9allocatorIiEELi1ELb1EE5__getB8ne180100Ev, symObjAddr: 0x11CFC, symBinAddr: 0x100014764, symSize: 0x14 }
  - { offset: 0x3E4BE, size: 0x8, addend: 0x0, symName: __ZNSt3__114__split_bufferIiRNS_9allocatorIiEEEC2EmmS3_, symObjAddr: 0x11D10, symBinAddr: 0x100014778, symSize: 0xD4 }
  - { offset: 0x3E536, size: 0x8, addend: 0x0, symName: __ZNSt3__117__compressed_pairIPiRNS_9allocatorIiEEEC1B8ne180100IDnS4_EEOT_OT0_, symObjAddr: 0x11DE4, symBinAddr: 0x10001484C, symSize: 0x3C }
  - { offset: 0x3E590, size: 0x8, addend: 0x0, symName: __ZNSt3__114__split_bufferIiRNS_9allocatorIiEEE7__allocB8ne180100Ev, symObjAddr: 0x11E60, symBinAddr: 0x1000148C8, symSize: 0x28 }
  - { offset: 0x3E5B6, size: 0x8, addend: 0x0, symName: __ZNSt3__114__split_bufferIiRNS_9allocatorIiEEE9__end_capB8ne180100Ev, symObjAddr: 0x11E88, symBinAddr: 0x1000148F0, symSize: 0x28 }
  - { offset: 0x3E5DC, size: 0x8, addend: 0x0, symName: __ZNSt3__117__compressed_pairIPiRNS_9allocatorIiEEEC2B8ne180100IDnS4_EEOT_OT0_, symObjAddr: 0x11EB0, symBinAddr: 0x100014918, symSize: 0x48 }
  - { offset: 0x3E636, size: 0x8, addend: 0x0, symName: __ZNSt3__122__compressed_pair_elemIRNS_9allocatorIiEELi1ELb0EEC2B8ne180100IS3_vEEOT_, symObjAddr: 0x11EF8, symBinAddr: 0x100014960, symSize: 0x20 }
  - { offset: 0x3E679, size: 0x8, addend: 0x0, symName: __ZNSt3__19allocatorIiE8allocateB8ne180100Em, symObjAddr: 0x11F18, symBinAddr: 0x100014980, symSize: 0x58 }
  - { offset: 0x3E6AE, size: 0x8, addend: 0x0, symName: __ZNSt3__117__compressed_pairIPiRNS_9allocatorIiEEE6secondB8ne180100Ev, symObjAddr: 0x11F70, symBinAddr: 0x1000149D8, symSize: 0x28 }
  - { offset: 0x3E6D4, size: 0x8, addend: 0x0, symName: __ZNSt3__122__compressed_pair_elemIRNS_9allocatorIiEELi1ELb0EE5__getB8ne180100Ev, symObjAddr: 0x11F98, symBinAddr: 0x100014A00, symSize: 0x18 }
  - { offset: 0x3E6FA, size: 0x8, addend: 0x0, symName: __ZNSt3__117__compressed_pairIPiRNS_9allocatorIiEEE5firstB8ne180100Ev, symObjAddr: 0x11FB0, symBinAddr: 0x100014A18, symSize: 0x24 }
  - { offset: 0x3E720, size: 0x8, addend: 0x0, symName: __ZNSt3__116reverse_iteratorIPiEC1B8ne180100ES1_, symObjAddr: 0x1204C, symBinAddr: 0x100014AB4, symSize: 0x34 }
  - { offset: 0x3E759, size: 0x8, addend: 0x0, symName: __ZNKSt3__116reverse_iteratorIPiE4baseB8ne180100Ev, symObjAddr: 0x12080, symBinAddr: 0x100014AE8, symSize: 0x18 }
  - { offset: 0x3E77F, size: 0x8, addend: 0x0, symName: __ZNKSt3__16vectorIiNS_9allocatorIiEEE14__annotate_newB8ne180100Em, symObjAddr: 0x120D4, symBinAddr: 0x100014B3C, symSize: 0x14 }
  - { offset: 0x3E7DB, size: 0x8, addend: 0x0, symName: __ZNKSt3__111__move_loopINS_17_ClassicAlgPolicyEEclB8ne180100INS_16reverse_iteratorIPiEES6_S6_EENS_4pairIT_T1_EES8_T0_S9_, symObjAddr: 0x123D8, symBinAddr: 0x100014E40, symSize: 0xA0 }
  - { offset: 0x3E84F, size: 0x8, addend: 0x0, symName: __ZNSt3__18_IterOpsINS_17_ClassicAlgPolicyEE11__iter_moveB8ne180100IRNS_16reverse_iteratorIPiEELi0EEEDTclsr3stdE4movedeclsr3stdE7declvalIRT_EEEEOS8_, symObjAddr: 0x1260C, symBinAddr: 0x100015074, symSize: 0x28 }
  - { offset: 0x3E882, size: 0x8, addend: 0x0, symName: __ZNKSt3__116reverse_iteratorIPiEdeB8ne180100Ev, symObjAddr: 0x12634, symBinAddr: 0x10001509C, symSize: 0x28 }
  - { offset: 0x3E8B7, size: 0x8, addend: 0x0, symName: __ZNSt3__116reverse_iteratorIPiEppB8ne180100Ev, symObjAddr: 0x1265C, symBinAddr: 0x1000150C4, symSize: 0x20 }
  - { offset: 0x3E8DD, size: 0x8, addend: 0x0, symName: __ZNSt3__18_IterOpsINS_17_ClassicAlgPolicyEE25__validate_iter_referenceB8ne180100IRNS_16reverse_iteratorIPiEEEEvv, symObjAddr: 0x1267C, symBinAddr: 0x1000150E4, symSize: 0x4 }
  - { offset: 0x3E8FB, size: 0x8, addend: 0x0, symName: __ZNSt3__118__unwrap_iter_implINS_16reverse_iteratorIPiEELb0EE8__unwrapB8ne180100ES3_, symObjAddr: 0x12680, symBinAddr: 0x1000150E8, symSize: 0x24 }
  - { offset: 0x3E925, size: 0x8, addend: 0x0, symName: __ZNSt3__14pairINS_16reverse_iteratorIPiEES3_EC1B8ne180100IS3_S3_Li0EEEOT_OT0_, symObjAddr: 0x126A4, symBinAddr: 0x10001510C, symSize: 0x3C }
  - { offset: 0x3E985, size: 0x8, addend: 0x0, symName: __ZNSt3__14pairINS_16reverse_iteratorIPiEES3_EC2B8ne180100IS3_S3_Li0EEEOT_OT0_, symObjAddr: 0x126E0, symBinAddr: 0x100015148, symSize: 0x34 }
  - { offset: 0x3E9E5, size: 0x8, addend: 0x0, symName: __ZNSt3__118__unwrap_iter_implINS_16reverse_iteratorIPiEELb0EE8__rewrapB8ne180100ES3_S3_, symObjAddr: 0x12714, symBinAddr: 0x10001517C, symSize: 0x2C }
  - { offset: 0x3EA14, size: 0x8, addend: 0x0, symName: __ZNSt3__116reverse_iteratorIPiEC2B8ne180100ES1_, symObjAddr: 0x12740, symBinAddr: 0x1000151A8, symSize: 0x28 }
  - { offset: 0x3EA4D, size: 0x8, addend: 0x0, symName: __ZNSt3__114__split_bufferIiRNS_9allocatorIiEEED2Ev, symObjAddr: 0x12768, symBinAddr: 0x1000151D0, symSize: 0x8C }
  - { offset: 0x3EA79, size: 0x8, addend: 0x0, symName: __ZNSt3__114__split_bufferIiRNS_9allocatorIiEEE5clearB8ne180100Ev, symObjAddr: 0x127F4, symBinAddr: 0x10001525C, symSize: 0x28 }
  - { offset: 0x3EA9F, size: 0x8, addend: 0x0, symName: __ZNKSt3__114__split_bufferIiRNS_9allocatorIiEEE8capacityB8ne180100Ev, symObjAddr: 0x1281C, symBinAddr: 0x100015284, symSize: 0x40 }
  - { offset: 0x3EAC5, size: 0x8, addend: 0x0, symName: __ZNSt3__114__split_bufferIiRNS_9allocatorIiEEE17__destruct_at_endB8ne180100EPi, symObjAddr: 0x1285C, symBinAddr: 0x1000152C4, symSize: 0x2C }
  - { offset: 0x3EAFA, size: 0x8, addend: 0x0, symName: __ZNSt3__114__split_bufferIiRNS_9allocatorIiEEE17__destruct_at_endB8ne180100EPiNS_17integral_constantIbLb0EEE, symObjAddr: 0x12888, symBinAddr: 0x1000152F0, symSize: 0x80 }
  - { offset: 0x3EB3C, size: 0x8, addend: 0x0, symName: __ZNKSt3__114__split_bufferIiRNS_9allocatorIiEEE9__end_capB8ne180100Ev, symObjAddr: 0x12908, symBinAddr: 0x100015370, symSize: 0x28 }
  - { offset: 0x3EB62, size: 0x8, addend: 0x0, symName: __ZNKSt3__117__compressed_pairIPiRNS_9allocatorIiEEE5firstB8ne180100Ev, symObjAddr: 0x12930, symBinAddr: 0x100015398, symSize: 0x24 }
  - { offset: 0x3EB88, size: 0x8, addend: 0x0, symName: __ZNSt3__16vectorI6PlayerNS_9allocatorIS1_EEE11__make_iterB8ne180100EPS1_, symObjAddr: 0x12954, symBinAddr: 0x1000153BC, symSize: 0x30 }
  - { offset: 0x3EBBE, size: 0x8, addend: 0x0, symName: __ZNSt3__111__wrap_iterIP6PlayerEC1B8ne180100ES2_, symObjAddr: 0x12984, symBinAddr: 0x1000153EC, symSize: 0x34 }
  - { offset: 0x3EBF7, size: 0x8, addend: 0x0, symName: __ZNSt3__111__wrap_iterIP6PlayerEC2B8ne180100ES2_, symObjAddr: 0x129B8, symBinAddr: 0x100015420, symSize: 0x20 }
  - { offset: 0x3EC30, size: 0x8, addend: 0x0, symName: __ZNSt3__110shared_ptrIN2sf7TextureEEC2B8ne180100ERKS3_, symObjAddr: 0x129D8, symBinAddr: 0x100015440, symSize: 0x70 }
  - { offset: 0x3EC6A, size: 0x8, addend: 0x0, symName: __ZNSt3__119__shared_weak_count12__add_sharedB8ne180100Ev, symObjAddr: 0x12A48, symBinAddr: 0x1000154B0, symSize: 0x24 }
  - { offset: 0x3EC90, size: 0x8, addend: 0x0, symName: __ZNSt3__114__shared_count12__add_sharedB8ne180100Ev, symObjAddr: 0x12A6C, symBinAddr: 0x1000154D4, symSize: 0x28 }
  - { offset: 0x3ECB6, size: 0x8, addend: 0x0, symName: __ZNSt3__16vectorI9BoomerangNS_9allocatorIS1_EEE9__end_capB8ne180100Ev, symObjAddr: 0x12AC4, symBinAddr: 0x10001552C, symSize: 0x28 }
  - { offset: 0x3ECDC, size: 0x8, addend: 0x0, symName: __ZNSt3__16vectorI9BoomerangNS_9allocatorIS1_EEE22__construct_one_at_endB8ne180100IJRKS1_EEEvDpOT_, symObjAddr: 0x12AEC, symBinAddr: 0x100015554, symSize: 0x90 }
  - { offset: 0x3ED2D, size: 0x8, addend: 0x0, symName: __ZNSt3__16vectorI9BoomerangNS_9allocatorIS1_EEE21__push_back_slow_pathIRKS1_EEPS1_OT_, symObjAddr: 0x12B7C, symBinAddr: 0x1000155E4, symSize: 0xE8 }
  - { offset: 0x3ED8E, size: 0x8, addend: 0x0, symName: __ZNSt3__117__compressed_pairIP9BoomerangNS_9allocatorIS1_EEE5firstB8ne180100Ev, symObjAddr: 0x12C64, symBinAddr: 0x1000156CC, symSize: 0x24 }
  - { offset: 0x3EDB4, size: 0x8, addend: 0x0, symName: __ZNSt3__122__compressed_pair_elemIP9BoomerangLi0ELb0EE5__getB8ne180100Ev, symObjAddr: 0x12C88, symBinAddr: 0x1000156F0, symSize: 0x14 }
  - { offset: 0x3EDF5, size: 0x8, addend: 0x0, symName: __ZNSt3__16vectorI9BoomerangNS_9allocatorIS1_EEE21_ConstructTransactionC1B8ne180100ERS4_m, symObjAddr: 0x12C9C, symBinAddr: 0x100015704, symSize: 0x3C }
  - { offset: 0x3EE3F, size: 0x8, addend: 0x0, symName: __ZNSt3__116allocator_traitsINS_9allocatorI9BoomerangEEE9constructB8ne180100IS2_JRKS2_EvEEvRS3_PT_DpOT0_, symObjAddr: 0x12CD8, symBinAddr: 0x100015740, symSize: 0x34 }
  - { offset: 0x3EE99, size: 0x8, addend: 0x0, symName: __ZNSt3__16vectorI9BoomerangNS_9allocatorIS1_EEE21_ConstructTransactionD1B8ne180100Ev, symObjAddr: 0x12D0C, symBinAddr: 0x100015774, symSize: 0x2C }
  - { offset: 0x3EEC3, size: 0x8, addend: 0x0, symName: __ZNSt3__16vectorI9BoomerangNS_9allocatorIS1_EEE21_ConstructTransactionC2B8ne180100ERS4_m, symObjAddr: 0x12D38, symBinAddr: 0x1000157A0, symSize: 0x4C }
  - { offset: 0x3EF0D, size: 0x8, addend: 0x0, symName: __ZNSt3__19allocatorI9BoomerangE9constructB8ne180100IS1_JRKS1_EEEvPT_DpOT0_, symObjAddr: 0x12D84, symBinAddr: 0x1000157EC, symSize: 0x30 }
  - { offset: 0x3EF65, size: 0x8, addend: 0x0, symName: __ZN9BoomerangC1ERKS_, symObjAddr: 0x12DB4, symBinAddr: 0x10001581C, symSize: 0x34 }
  - { offset: 0x3EF9A, size: 0x8, addend: 0x0, symName: __ZN9BoomerangC2ERKS_, symObjAddr: 0x12DE8, symBinAddr: 0x100015850, symSize: 0xA8 }
  - { offset: 0x3EFCF, size: 0x8, addend: 0x0, symName: __ZNSt3__16vectorI9BoomerangNS_9allocatorIS1_EEE21_ConstructTransactionD2B8ne180100Ev, symObjAddr: 0x12E90, symBinAddr: 0x1000158F8, symSize: 0x20 }
  - { offset: 0x3EFF9, size: 0x8, addend: 0x0, symName: __ZNKSt3__16vectorI9BoomerangNS_9allocatorIS1_EEE11__recommendB8ne180100Em, symObjAddr: 0x12EB0, symBinAddr: 0x100015918, symSize: 0xB4 }
  - { offset: 0x3F051, size: 0x8, addend: 0x0, symName: __ZNSt3__114__split_bufferI9BoomerangRNS_9allocatorIS1_EEEC1EmmS4_, symObjAddr: 0x12F64, symBinAddr: 0x1000159CC, symSize: 0x44 }
  - { offset: 0x3F0AA, size: 0x8, addend: 0x0, symName: __ZNSt3__114__split_bufferI9BoomerangRNS_9allocatorIS1_EEED1Ev, symObjAddr: 0x130B8, symBinAddr: 0x100015B20, symSize: 0x2C }
  - { offset: 0x3F0D6, size: 0x8, addend: 0x0, symName: __ZNKSt3__16vectorI9BoomerangNS_9allocatorIS1_EEE8max_sizeEv, symObjAddr: 0x130E4, symBinAddr: 0x100015B4C, symSize: 0x60 }
  - { offset: 0x3F0FE, size: 0x8, addend: 0x0, symName: __ZNKSt3__16vectorI9BoomerangNS_9allocatorIS1_EEE20__throw_length_errorB8ne180100Ev, symObjAddr: 0x13144, symBinAddr: 0x100015BAC, symSize: 0x1C }
  - { offset: 0x3F12F, size: 0x8, addend: 0x0, symName: __ZNSt3__116allocator_traitsINS_9allocatorI9BoomerangEEE8max_sizeB8ne180100IS3_vEEmRKS3_, symObjAddr: 0x13160, symBinAddr: 0x100015BC8, symSize: 0x24 }
  - { offset: 0x3F15E, size: 0x8, addend: 0x0, symName: __ZNKSt3__16vectorI9BoomerangNS_9allocatorIS1_EEE7__allocB8ne180100Ev, symObjAddr: 0x13184, symBinAddr: 0x100015BEC, symSize: 0x28 }
  - { offset: 0x3F184, size: 0x8, addend: 0x0, symName: __ZNKSt3__19allocatorI9BoomerangE8max_sizeB8ne180100Ev, symObjAddr: 0x131AC, symBinAddr: 0x100015C14, symSize: 0x20 }
  - { offset: 0x3F1AA, size: 0x8, addend: 0x0, symName: __ZNKSt3__117__compressed_pairIP9BoomerangNS_9allocatorIS1_EEE6secondB8ne180100Ev, symObjAddr: 0x131CC, symBinAddr: 0x100015C34, symSize: 0x24 }
  - { offset: 0x3F1D0, size: 0x8, addend: 0x0, symName: __ZNKSt3__122__compressed_pair_elemINS_9allocatorI9BoomerangEELi1ELb1EE5__getB8ne180100Ev, symObjAddr: 0x131F0, symBinAddr: 0x100015C58, symSize: 0x14 }
  - { offset: 0x3F1F6, size: 0x8, addend: 0x0, symName: __ZNSt3__114__split_bufferI9BoomerangRNS_9allocatorIS1_EEEC2EmmS4_, symObjAddr: 0x13204, symBinAddr: 0x100015C6C, symSize: 0xE0 }
  - { offset: 0x3F26E, size: 0x8, addend: 0x0, symName: __ZNSt3__117__compressed_pairIP9BoomerangRNS_9allocatorIS1_EEEC1B8ne180100IDnS5_EEOT_OT0_, symObjAddr: 0x132E4, symBinAddr: 0x100015D4C, symSize: 0x3C }
  - { offset: 0x3F2C8, size: 0x8, addend: 0x0, symName: __ZNSt3__114__split_bufferI9BoomerangRNS_9allocatorIS1_EEE7__allocB8ne180100Ev, symObjAddr: 0x13360, symBinAddr: 0x100015DC8, symSize: 0x28 }
  - { offset: 0x3F2EE, size: 0x8, addend: 0x0, symName: __ZNSt3__114__split_bufferI9BoomerangRNS_9allocatorIS1_EEE9__end_capB8ne180100Ev, symObjAddr: 0x13388, symBinAddr: 0x100015DF0, symSize: 0x28 }
  - { offset: 0x3F314, size: 0x8, addend: 0x0, symName: __ZNSt3__117__compressed_pairIP9BoomerangRNS_9allocatorIS1_EEEC2B8ne180100IDnS5_EEOT_OT0_, symObjAddr: 0x133B0, symBinAddr: 0x100015E18, symSize: 0x48 }
  - { offset: 0x3F36E, size: 0x8, addend: 0x0, symName: __ZNSt3__122__compressed_pair_elemIRNS_9allocatorI9BoomerangEELi1ELb0EEC2B8ne180100IS4_vEEOT_, symObjAddr: 0x133F8, symBinAddr: 0x100015E60, symSize: 0x20 }
  - { offset: 0x3F3B1, size: 0x8, addend: 0x0, symName: __ZNSt3__19allocatorI9BoomerangE8allocateB8ne180100Em, symObjAddr: 0x13418, symBinAddr: 0x100015E80, symSize: 0x5C }
  - { offset: 0x3F3E6, size: 0x8, addend: 0x0, symName: __ZNSt3__117__compressed_pairIP9BoomerangRNS_9allocatorIS1_EEE6secondB8ne180100Ev, symObjAddr: 0x13474, symBinAddr: 0x100015EDC, symSize: 0x28 }
  - { offset: 0x3F40C, size: 0x8, addend: 0x0, symName: __ZNSt3__122__compressed_pair_elemIRNS_9allocatorI9BoomerangEELi1ELb0EE5__getB8ne180100Ev, symObjAddr: 0x1349C, symBinAddr: 0x100015F04, symSize: 0x18 }
  - { offset: 0x3F432, size: 0x8, addend: 0x0, symName: __ZNSt3__117__compressed_pairIP9BoomerangRNS_9allocatorIS1_EEE5firstB8ne180100Ev, symObjAddr: 0x134B4, symBinAddr: 0x100015F1C, symSize: 0x24 }
  - { offset: 0x3F458, size: 0x8, addend: 0x0, symName: __ZNSt3__116reverse_iteratorIP9BoomerangEC1B8ne180100ES2_, symObjAddr: 0x13604, symBinAddr: 0x10001606C, symSize: 0x34 }
  - { offset: 0x3F491, size: 0x8, addend: 0x0, symName: __ZNKSt3__116reverse_iteratorIP9BoomerangE4baseB8ne180100Ev, symObjAddr: 0x13638, symBinAddr: 0x1000160A0, symSize: 0x18 }
  - { offset: 0x3F4B7, size: 0x8, addend: 0x0, symName: __ZNKSt3__16vectorI9BoomerangNS_9allocatorIS1_EEE14__annotate_newB8ne180100Em, symObjAddr: 0x1368C, symBinAddr: 0x1000160F4, symSize: 0x14 }
  - { offset: 0x3F4ED, size: 0x8, addend: 0x0, symName: __ZNSt3__129_AllocatorDestroyRangeReverseINS_9allocatorI9BoomerangEENS_16reverse_iteratorIPS2_EEEC1B8ne180100ERS3_RS6_S9_, symObjAddr: 0x136EC, symBinAddr: 0x100016154, symSize: 0x44 }
  - { offset: 0x3F54D, size: 0x8, addend: 0x0, symName: __ZNSt3__116allocator_traitsINS_9allocatorI9BoomerangEEE9constructB8ne180100IS2_JS2_EvEEvRS3_PT_DpOT0_, symObjAddr: 0x13778, symBinAddr: 0x1000161E0, symSize: 0x34 }
  - { offset: 0x3F5A7, size: 0x8, addend: 0x0, symName: __ZNKSt3__116reverse_iteratorIP9BoomerangEdeB8ne180100Ev, symObjAddr: 0x137D0, symBinAddr: 0x100016238, symSize: 0x28 }
  - { offset: 0x3F5DC, size: 0x8, addend: 0x0, symName: __ZNSt3__116reverse_iteratorIP9BoomerangEppB8ne180100Ev, symObjAddr: 0x137F8, symBinAddr: 0x100016260, symSize: 0x20 }
  - { offset: 0x3F602, size: 0x8, addend: 0x0, symName: __ZNSt3__128__exception_guard_exceptionsINS_29_AllocatorDestroyRangeReverseINS_9allocatorI9BoomerangEENS_16reverse_iteratorIPS3_EEEEE10__completeB8ne180100Ev, symObjAddr: 0x13818, symBinAddr: 0x100016280, symSize: 0x1C }
  - { offset: 0x3F628, size: 0x8, addend: 0x0, symName: __ZNSt3__128__exception_guard_exceptionsINS_29_AllocatorDestroyRangeReverseINS_9allocatorI9BoomerangEENS_16reverse_iteratorIPS3_EEEEED1B8ne180100Ev, symObjAddr: 0x13834, symBinAddr: 0x10001629C, symSize: 0x2C }
  - { offset: 0x3F652, size: 0x8, addend: 0x0, symName: __ZNSt3__128__exception_guard_exceptionsINS_29_AllocatorDestroyRangeReverseINS_9allocatorI9BoomerangEENS_16reverse_iteratorIPS3_EEEEEC1B8ne180100ES8_, symObjAddr: 0x13860, symBinAddr: 0x1000162C8, symSize: 0x34 }
  - { offset: 0x3F68C, size: 0x8, addend: 0x0, symName: __ZNSt3__128__exception_guard_exceptionsINS_29_AllocatorDestroyRangeReverseINS_9allocatorI9BoomerangEENS_16reverse_iteratorIPS3_EEEEEC2B8ne180100ES8_, symObjAddr: 0x13894, symBinAddr: 0x1000162FC, symSize: 0x30 }
  - { offset: 0x3F6C6, size: 0x8, addend: 0x0, symName: __ZNSt3__129_AllocatorDestroyRangeReverseINS_9allocatorI9BoomerangEENS_16reverse_iteratorIPS2_EEEC2B8ne180100ERS3_RS6_S9_, symObjAddr: 0x138C4, symBinAddr: 0x10001632C, symSize: 0x38 }
  - { offset: 0x3F720, size: 0x8, addend: 0x0, symName: __ZNSt3__19allocatorI9BoomerangE9constructB8ne180100IS1_JS1_EEEvPT_DpOT0_, symObjAddr: 0x138FC, symBinAddr: 0x100016364, symSize: 0x30 }
  - { offset: 0x3F778, size: 0x8, addend: 0x0, symName: __ZN9BoomerangC1EOS_, symObjAddr: 0x1392C, symBinAddr: 0x100016394, symSize: 0x34 }
  - { offset: 0x3F7AD, size: 0x8, addend: 0x0, symName: __ZN9BoomerangC2EOS_, symObjAddr: 0x13960, symBinAddr: 0x1000163C8, symSize: 0xA8 }
  - { offset: 0x3F7E8, size: 0x8, addend: 0x0, symName: __ZNSt3__119__to_address_helperINS_16reverse_iteratorIP9BoomerangEEvE6__callB8ne180100ERKS4_, symObjAddr: 0x13A08, symBinAddr: 0x100016470, symSize: 0x38 }
  - { offset: 0x3F80C, size: 0x8, addend: 0x0, symName: __ZNKSt3__116reverse_iteratorIP9BoomerangEptB8ne180100Ev, symObjAddr: 0x13A40, symBinAddr: 0x1000164A8, symSize: 0x24 }
  - { offset: 0x3F832, size: 0x8, addend: 0x0, symName: __ZNSt3__128__exception_guard_exceptionsINS_29_AllocatorDestroyRangeReverseINS_9allocatorI9BoomerangEENS_16reverse_iteratorIPS3_EEEEED2B8ne180100Ev, symObjAddr: 0x13A64, symBinAddr: 0x1000164CC, symSize: 0x50 }
  - { offset: 0x3F85C, size: 0x8, addend: 0x0, symName: __ZNKSt3__129_AllocatorDestroyRangeReverseINS_9allocatorI9BoomerangEENS_16reverse_iteratorIPS2_EEEclB8ne180100Ev, symObjAddr: 0x13AB4, symBinAddr: 0x10001651C, symSize: 0xB4 }
  - { offset: 0x3F883, size: 0x8, addend: 0x0, symName: __ZNSt3__116reverse_iteratorINS0_IP9BoomerangEEEC1B8ne180100ES3_, symObjAddr: 0x13BD8, symBinAddr: 0x100016640, symSize: 0x3C }
  - { offset: 0x3F8BC, size: 0x8, addend: 0x0, symName: __ZNSt3__116reverse_iteratorINS0_IP9BoomerangEEEppB8ne180100Ev, symObjAddr: 0x13C98, symBinAddr: 0x100016700, symSize: 0x30 }
  - { offset: 0x3F8E2, size: 0x8, addend: 0x0, symName: __ZNKSt3__116reverse_iteratorINS0_IP9BoomerangEEE4baseB8ne180100Ev, symObjAddr: 0x13CC8, symBinAddr: 0x100016730, symSize: 0x24 }
  - { offset: 0x3F90E, size: 0x8, addend: 0x0, symName: __ZNSt3__119__to_address_helperINS_16reverse_iteratorINS1_IP9BoomerangEEEEvE6__callB8ne180100ERKS5_, symObjAddr: 0x13CEC, symBinAddr: 0x100016754, symSize: 0x38 }
  - { offset: 0x3F932, size: 0x8, addend: 0x0, symName: __ZNKSt3__116reverse_iteratorINS0_IP9BoomerangEEEptB8ne180100Ev, symObjAddr: 0x13D24, symBinAddr: 0x10001678C, symSize: 0x24 }
  - { offset: 0x3F958, size: 0x8, addend: 0x0, symName: __ZNKSt3__116reverse_iteratorINS0_IP9BoomerangEEEdeB8ne180100Ev, symObjAddr: 0x13D48, symBinAddr: 0x1000167B0, symSize: 0x34 }
  - { offset: 0x3F98D, size: 0x8, addend: 0x0, symName: __ZNSt3__116reverse_iteratorIP9BoomerangEmmB8ne180100Ev, symObjAddr: 0x13D7C, symBinAddr: 0x1000167E4, symSize: 0x20 }
  - { offset: 0x3F9B3, size: 0x8, addend: 0x0, symName: __ZNSt3__116reverse_iteratorINS0_IP9BoomerangEEEC2B8ne180100ES3_, symObjAddr: 0x13D9C, symBinAddr: 0x100016804, symSize: 0x2C }
  - { offset: 0x3F9EC, size: 0x8, addend: 0x0, symName: __ZNSt3__116reverse_iteratorIP9BoomerangEC2B8ne180100ES2_, symObjAddr: 0x13DC8, symBinAddr: 0x100016830, symSize: 0x28 }
  - { offset: 0x3FA25, size: 0x8, addend: 0x0, symName: __ZNSt3__114__split_bufferI9BoomerangRNS_9allocatorIS1_EEED2Ev, symObjAddr: 0x13DF0, symBinAddr: 0x100016858, symSize: 0x8C }
  - { offset: 0x3FA51, size: 0x8, addend: 0x0, symName: __ZNSt3__114__split_bufferI9BoomerangRNS_9allocatorIS1_EEE5clearB8ne180100Ev, symObjAddr: 0x13E7C, symBinAddr: 0x1000168E4, symSize: 0x28 }
  - { offset: 0x3FA77, size: 0x8, addend: 0x0, symName: __ZNKSt3__114__split_bufferI9BoomerangRNS_9allocatorIS1_EEE8capacityB8ne180100Ev, symObjAddr: 0x13EA4, symBinAddr: 0x10001690C, symSize: 0x40 }
  - { offset: 0x3FA9D, size: 0x8, addend: 0x0, symName: __ZNSt3__114__split_bufferI9BoomerangRNS_9allocatorIS1_EEE17__destruct_at_endB8ne180100EPS1_, symObjAddr: 0x13EE4, symBinAddr: 0x10001694C, symSize: 0x2C }
  - { offset: 0x3FAD2, size: 0x8, addend: 0x0, symName: __ZNSt3__114__split_bufferI9BoomerangRNS_9allocatorIS1_EEE17__destruct_at_endB8ne180100EPS1_NS_17integral_constantIbLb0EEE, symObjAddr: 0x13F10, symBinAddr: 0x100016978, symSize: 0x80 }
  - { offset: 0x3FB14, size: 0x8, addend: 0x0, symName: __ZNKSt3__114__split_bufferI9BoomerangRNS_9allocatorIS1_EEE9__end_capB8ne180100Ev, symObjAddr: 0x13F90, symBinAddr: 0x1000169F8, symSize: 0x28 }
  - { offset: 0x3FB3A, size: 0x8, addend: 0x0, symName: __ZNKSt3__117__compressed_pairIP9BoomerangRNS_9allocatorIS1_EEE5firstB8ne180100Ev, symObjAddr: 0x13FB8, symBinAddr: 0x100016A20, symSize: 0x24 }
  - { offset: 0x3FB60, size: 0x8, addend: 0x0, symName: __ZNSt3__16vectorI9BoomerangNS_9allocatorIS1_EEE11__make_iterB8ne180100EPS1_, symObjAddr: 0x13FDC, symBinAddr: 0x100016A44, symSize: 0x30 }
  - { offset: 0x3FB96, size: 0x8, addend: 0x0, symName: __ZNSt3__111__wrap_iterIP9BoomerangEC1B8ne180100ES2_, symObjAddr: 0x1400C, symBinAddr: 0x100016A74, symSize: 0x34 }
  - { offset: 0x3FBCF, size: 0x8, addend: 0x0, symName: __ZNSt3__111__wrap_iterIP9BoomerangEC2B8ne180100ES2_, symObjAddr: 0x14040, symBinAddr: 0x100016AA8, symSize: 0x20 }
  - { offset: 0x3FC12, size: 0x8, addend: 0x0, symName: '__ZZ4mainENK3$_0clERK9Boomerang', symObjAddr: 0x140E0, symBinAddr: 0x100016B48, symSize: 0x34 }
  - { offset: 0x3FC4C, size: 0x8, addend: 0x0, symName: __ZN9BoomerangaSEOS_, symObjAddr: 0x14114, symBinAddr: 0x100016B7C, symSize: 0xA8 }
  - { offset: 0x3FC7D, size: 0x8, addend: 0x0, symName: __ZN2sf14RectangleShapeaSEOS0_, symObjAddr: 0x141BC, symBinAddr: 0x100016C24, symSize: 0x40 }
  - { offset: 0x3FCAE, size: 0x8, addend: 0x0, symName: __ZN2sf6SpriteaSEOS0_, symObjAddr: 0x141FC, symBinAddr: 0x100016C64, symSize: 0x60 }
  - { offset: 0x3FCE5, size: 0x8, addend: 0x0, symName: __ZN2sf5ShapeaSEOS0_, symObjAddr: 0x1425C, symBinAddr: 0x100016CC4, symSize: 0xB8 }
  - { offset: 0x3FD1C, size: 0x8, addend: 0x0, symName: __ZN2sf8DrawableaSERKS0_, symObjAddr: 0x14314, symBinAddr: 0x100016D7C, symSize: 0x18 }
  - { offset: 0x3FD53, size: 0x8, addend: 0x0, symName: __ZN2sf13TransformableaSERKS0_, symObjAddr: 0x1432C, symBinAddr: 0x100016D94, symSize: 0x7C }
  - { offset: 0x3FD8A, size: 0x8, addend: 0x0, symName: __ZN2sf11VertexArrayaSEOS0_, symObjAddr: 0x143A8, symBinAddr: 0x100016E10, symSize: 0x54 }
  - { offset: 0x3FDBB, size: 0x8, addend: 0x0, symName: __ZNSt3__16vectorIN2sf6VertexENS_9allocatorIS2_EEEaSB8ne180100EOS5_, symObjAddr: 0x143FC, symBinAddr: 0x100016E64, symSize: 0x34 }
  - { offset: 0x3FDF3, size: 0x8, addend: 0x0, symName: __ZNSt3__16vectorIN2sf6VertexENS_9allocatorIS2_EEE13__move_assignERS5_NS_17integral_constantIbLb1EEE, symObjAddr: 0x14430, symBinAddr: 0x100016E98, symSize: 0x94 }
  - { offset: 0x3FE37, size: 0x8, addend: 0x0, symName: __ZNSt3__16vectorIN2sf6VertexENS_9allocatorIS2_EEE13__vdeallocateEv, symObjAddr: 0x144C4, symBinAddr: 0x100016F2C, symSize: 0x94 }
  - { offset: 0x3FE5F, size: 0x8, addend: 0x0, symName: __ZNSt3__16vectorIN2sf6VertexENS_9allocatorIS2_EEE19__move_assign_allocB8ne180100ERS5_, symObjAddr: 0x14558, symBinAddr: 0x100016FC0, symSize: 0x2C }
  - { offset: 0x3FE95, size: 0x8, addend: 0x0, symName: __ZNSt3__16vectorIN2sf6VertexENS_9allocatorIS2_EEE5clearB8ne180100Ev, symObjAddr: 0x14584, symBinAddr: 0x100016FEC, symSize: 0x44 }
  - { offset: 0x3FECB, size: 0x8, addend: 0x0, symName: __ZNKSt3__16vectorIN2sf6VertexENS_9allocatorIS2_EEE17__annotate_shrinkB8ne180100Em, symObjAddr: 0x145C8, symBinAddr: 0x100017030, symSize: 0x14 }
  - { offset: 0x3FF01, size: 0x8, addend: 0x0, symName: __ZNSt3__16vectorIN2sf6VertexENS_9allocatorIS2_EEE19__move_assign_allocB8ne180100ERS5_NS_17integral_constantIbLb1EEE, symObjAddr: 0x145DC, symBinAddr: 0x100017044, symSize: 0x38 }
  - { offset: 0x3FF43, size: 0x8, addend: 0x0, symName: __ZNSt3__16vectorI9BoomerangNS_9allocatorIS1_EEE17__destruct_at_endB8ne180100EPS1_, symObjAddr: 0x14690, symBinAddr: 0x1000170F8, symSize: 0x4C }
  - { offset: 0x3FF89, size: 0x8, addend: 0x0, symName: __ZNKSt3__111__wrap_iterIPK9BoomerangE4baseB8ne180100Ev, symObjAddr: 0x14764, symBinAddr: 0x1000171CC, symSize: 0x18 }
  - { offset: 0x3FFAF, size: 0x8, addend: 0x0, symName: __ZNKSt3__16vectorI9BoomerangNS_9allocatorIS1_EEE17__annotate_shrinkB8ne180100Em, symObjAddr: 0x147C4, symBinAddr: 0x10001722C, symSize: 0x14 }
  - { offset: 0x40001, size: 0x8, addend: 0x0, symName: __ZNKSt3__111__move_loopINS_17_ClassicAlgPolicyEEclB8ne180100IP9BoomerangS5_S5_EENS_4pairIT_T1_EES7_T0_S8_, symObjAddr: 0x14974, symBinAddr: 0x1000173DC, symSize: 0x90 }
  - { offset: 0x40075, size: 0x8, addend: 0x0, symName: __ZNSt3__18_IterOpsINS_17_ClassicAlgPolicyEE11__iter_moveB8ne180100IRP9BoomerangLi0EEEDTclsr3stdE4movedeclsr3stdE7declvalIRT_EEEEOS7_, symObjAddr: 0x14AC8, symBinAddr: 0x100017530, symSize: 0x28 }
  - { offset: 0x400A8, size: 0x8, addend: 0x0, symName: __ZNSt3__18_IterOpsINS_17_ClassicAlgPolicyEE25__validate_iter_referenceB8ne180100IRP9BoomerangEEvv, symObjAddr: 0x14AF0, symBinAddr: 0x100017558, symSize: 0x4 }
  - { offset: 0x400C6, size: 0x8, addend: 0x0, symName: __ZNSt3__118__unwrap_iter_implIP9BoomerangLb1EE8__unwrapB8ne180100ES2_, symObjAddr: 0x14AF4, symBinAddr: 0x10001755C, symSize: 0x24 }
  - { offset: 0x400F0, size: 0x8, addend: 0x0, symName: __ZNSt3__14pairIP9BoomerangS2_EC1B8ne180100IS2_S2_Li0EEEOT_OT0_, symObjAddr: 0x14B18, symBinAddr: 0x100017580, symSize: 0x3C }
  - { offset: 0x40150, size: 0x8, addend: 0x0, symName: __ZNSt3__14pairIP9BoomerangS2_EC2B8ne180100IS2_S2_Li0EEEOT_OT0_, symObjAddr: 0x14B54, symBinAddr: 0x1000175BC, symSize: 0x34 }
  - { offset: 0x401B0, size: 0x8, addend: 0x0, symName: __ZNSt3__118__unwrap_iter_implIP9BoomerangLb1EE8__rewrapB8ne180100ES2_S2_, symObjAddr: 0x14B88, symBinAddr: 0x1000175F0, symSize: 0x58 }
  - { offset: 0x401E3, size: 0x8, addend: 0x0, symName: __ZNSt3__16vectorIN2sf14RectangleShapeENS_9allocatorIS2_EEE11__make_iterB8ne180100EPS2_, symObjAddr: 0x14BE0, symBinAddr: 0x100017648, symSize: 0x30 }
  - { offset: 0x40219, size: 0x8, addend: 0x0, symName: __ZNSt3__111__wrap_iterIPN2sf14RectangleShapeEEC1B8ne180100ES3_, symObjAddr: 0x14C10, symBinAddr: 0x100017678, symSize: 0x34 }
  - { offset: 0x40252, size: 0x8, addend: 0x0, symName: __ZNSt3__111__wrap_iterIPN2sf14RectangleShapeEEC2B8ne180100ES3_, symObjAddr: 0x14C44, symBinAddr: 0x1000176AC, symSize: 0x20 }
  - { offset: 0x442B2, size: 0x8, addend: 0x0, symName: __ZN2sf5Color5GreenE, symObjAddr: 0xA23C, symBinAddr: 0x10001EE68, symSize: 0x0 }
  - { offset: 0x442C5, size: 0x8, addend: 0x0, symName: __ZN2sf5Color4BlueE, symObjAddr: 0xA240, symBinAddr: 0x10001EE6C, symSize: 0x0 }
  - { offset: 0x442D8, size: 0x8, addend: 0x0, symName: __ZN2sf5Color7MagentaE, symObjAddr: 0xA244, symBinAddr: 0x10001EE70, symSize: 0x0 }
  - { offset: 0x442EB, size: 0x8, addend: 0x0, symName: __ZN2sf5Color3RedE, symObjAddr: 0xA248, symBinAddr: 0x10001EE74, symSize: 0x0 }
  - { offset: 0x442FE, size: 0x8, addend: 0x0, symName: __ZN2sf5Color5WhiteE, symObjAddr: 0xA24C, symBinAddr: 0x10001EE78, symSize: 0x0 }
  - { offset: 0x44311, size: 0x8, addend: 0x0, symName: __ZN2sf5Color11TransparentE, symObjAddr: 0xA2A0, symBinAddr: 0x10001EECC, symSize: 0x0 }
  - { offset: 0x44324, size: 0x8, addend: 0x0, symName: __ZN2sf5Color6YellowE, symObjAddr: 0xA2A4, symBinAddr: 0x10001EED0, symSize: 0x0 }
  - { offset: 0x44332, size: 0x8, addend: 0x0, symName: __ZN2sf7secondsEf, symObjAddr: 0x840, symBinAddr: 0x100017EA4, symSize: 0x48 }
  - { offset: 0x44360, size: 0x8, addend: 0x0, symName: __ZN2sfplIfEENS_7Vector2IT_EES3_S3_, symObjAddr: 0xEC4, symBinAddr: 0x100018204, symSize: 0x50 }
  - { offset: 0x443A6, size: 0x8, addend: 0x0, symName: __ZN2sfmlIfEENS_7Vector2IT_EES3_S2_, symObjAddr: 0xF14, symBinAddr: 0x100018254, symSize: 0x4C }
  - { offset: 0x443EC, size: 0x8, addend: 0x0, symName: __ZN2sf7degreesEf, symObjAddr: 0xF8C, symBinAddr: 0x1000182CC, symSize: 0x3C }
  - { offset: 0x4441A, size: 0x8, addend: 0x0, symName: __ZN2sfgeENS_4TimeES0_, symObjAddr: 0x14C4, symBinAddr: 0x100018804, symSize: 0x58 }
  - { offset: 0x4D335, size: 0x8, addend: 0x0, symName: __ZNSt3__16chrono13duration_castB8ne180100INS0_8durationIxNS_5ratioILl1ELl1000000EEEEEfNS3_ILl1ELl1EEELi0EEET_RKNS2_IT0_T1_EE, symObjAddr: 0x2A50, symBinAddr: 0x100019A98, symSize: 0x30 }
  - { offset: 0x548A4, size: 0x8, addend: 0x0, symName: __ZNSt3__17advanceB8ne180100INS_21__tree_const_iteratorINS_12__value_typeIN6Player14AnimationStateEZNS3_6updateERKNS_6vectorIN2sf14RectangleShapeENS_9allocatorIS7_EEEEE13AnimationDataEEPNS_11__tree_nodeISE_PvEElEEllvEEvRT_T0_, symObjAddr: 0x8DA4, symBinAddr: 0x10001B4A8, symSize: 0x38 }
  - { offset: 0x5493F, size: 0x8, addend: 0x0, symName: __ZNSt3__16__math5atan2B8ne180100Eff, symObjAddr: 0xF60, symBinAddr: 0x1000182A0, symSize: 0x2C }
  - { offset: 0x549C1, size: 0x8, addend: 0x0, symName: __ZNSt3__1neB8ne180100IPKN2sf14RectangleShapeEEEbRKNS_11__wrap_iterIT_EES9_, symObjAddr: 0x211C, symBinAddr: 0x10001945C, symSize: 0x34 }
  - { offset: 0x54A07, size: 0x8, addend: 0x0, symName: __ZNSt3__1neB8ne180100ERKNS_20__map_const_iteratorINS_21__tree_const_iteratorINS_12__value_typeIN6Player14AnimationStateEZNS3_6updateERKNS_6vectorIN2sf14RectangleShapeENS_9allocatorIS7_EEEEE13AnimationDataEEPNS_11__tree_nodeISE_PvEElEEEESM_, symObjAddr: 0x24F4, symBinAddr: 0x1000195BC, symSize: 0x30 }
  - { offset: 0x54A47, size: 0x8, addend: 0x0, symName: __ZNSt3__1eqB8ne180100IPKN2sf14RectangleShapeEEEbRKNS_11__wrap_iterIT_EES9_, symObjAddr: 0x3848, symBinAddr: 0x100019EE8, symSize: 0x48 }
  - { offset: 0x54A8D, size: 0x8, addend: 0x0, symName: __ZNSt3__114__construct_atB8ne180100IN2sf6SpriteEJRNS1_7TextureEEPS2_EEPT_S7_DpOT0_, symObjAddr: 0x78C4, symBinAddr: 0x100019FC8, symSize: 0x34 }
  - { offset: 0x54B16, size: 0x8, addend: 0x0, symName: __ZNSt3__1eqB8ne180100ERKNS_21__tree_const_iteratorINS_12__value_typeIN6Player14AnimationStateEZNS2_6updateERKNS_6vectorIN2sf14RectangleShapeENS_9allocatorIS6_EEEEE13AnimationDataEEPNS_11__tree_nodeISD_PvEElEESK_, symObjAddr: 0x86CC, symBinAddr: 0x10001ADD0, symSize: 0x30 }
  - { offset: 0x54B56, size: 0x8, addend: 0x0, symName: __ZNSt3__14nextB8ne180100INS_21__tree_const_iteratorINS_12__value_typeIN6Player14AnimationStateEZNS3_6updateERKNS_6vectorIN2sf14RectangleShapeENS_9allocatorIS7_EEEEE13AnimationDataEEPNS_11__tree_nodeISE_PvEElEELi0EEET_SK_NS_15iterator_traitsISK_E15difference_typeE, symObjAddr: 0x8A3C, symBinAddr: 0x10001B140, symSize: 0x3C }
  - { offset: 0x54BA2, size: 0x8, addend: 0x0, symName: __ZNSt3__17launderB8ne180100IKNS_4pairIKN6Player14AnimationStateEZNS2_6updateERKNS_6vectorIN2sf14RectangleShapeENS_9allocatorIS7_EEEEE13AnimationDataEEEEPT_SH_, symObjAddr: 0x8B94, symBinAddr: 0x10001B298, symSize: 0x24 }
  - { offset: 0x54BDB, size: 0x8, addend: 0x0, symName: __ZNSt3__19__launderB8ne180100IKNS_4pairIKN6Player14AnimationStateEZNS2_6updateERKNS_6vectorIN2sf14RectangleShapeENS_9allocatorIS7_EEEEE13AnimationDataEEEEPT_SH_, symObjAddr: 0x8BB8, symBinAddr: 0x10001B2BC, symSize: 0x14 }
  - { offset: 0x54C14, size: 0x8, addend: 0x0, symName: __ZNSt3__116__tree_prev_iterB8ne180100IPNS_16__tree_node_baseIPvEEPNS_15__tree_end_nodeIS4_EEEET_T0_, symObjAddr: 0x8BCC, symBinAddr: 0x10001B2D0, symSize: 0xA4 }
  - { offset: 0x54C63, size: 0x8, addend: 0x0, symName: __ZNSt3__110__tree_maxB8ne180100IPNS_16__tree_node_baseIPvEEEET_S5_, symObjAddr: 0x8C70, symBinAddr: 0x10001B374, symSize: 0x40 }
  - { offset: 0x54C9A, size: 0x8, addend: 0x0, symName: __ZNSt3__120__tree_is_left_childB8ne180100IPNS_16__tree_node_baseIPvEEEEbT_, symObjAddr: 0x8CB0, symBinAddr: 0x10001B3B4, symSize: 0x2C }
  - { offset: 0x54CD1, size: 0x8, addend: 0x0, symName: __ZNSt3__121__convert_to_integralB8ne180100El, symObjAddr: 0x8DDC, symBinAddr: 0x10001B4E0, symSize: 0x14 }
  - { offset: 0x54CFF, size: 0x8, addend: 0x0, symName: __ZNSt3__19__advanceB8ne180100INS_21__tree_const_iteratorINS_12__value_typeIN6Player14AnimationStateEZNS3_6updateERKNS_6vectorIN2sf14RectangleShapeENS_9allocatorIS7_EEEEE13AnimationDataEEPNS_11__tree_nodeISE_PvEElEEEEvRT_NS_15iterator_traitsISK_E15difference_typeENS_26bidirectional_iterator_tagE, symObjAddr: 0x8DF0, symBinAddr: 0x10001B4F4, symSize: 0xA4 }
  - { offset: 0x54D4C, size: 0x8, addend: 0x0, symName: __ZNSt3__116__tree_next_iterB8ne180100IPNS_15__tree_end_nodeIPNS_16__tree_node_baseIPvEEEES5_EET_T0_, symObjAddr: 0x8ECC, symBinAddr: 0x10001B5D0, symSize: 0x80 }
  - { offset: 0x54D8C, size: 0x8, addend: 0x0, symName: __ZNSt3__110__tree_minB8ne180100IPNS_16__tree_node_baseIPvEEEET_S5_, symObjAddr: 0x8F4C, symBinAddr: 0x10001B650, symSize: 0x40 }
  - { offset: 0x54DE1, size: 0x8, addend: 0x0, symName: __ZNSt3__17launderB8ne180100INS_4pairIKN6Player14AnimationStateEZNS2_6updateERKNS_6vectorIN2sf14RectangleShapeENS_9allocatorIS7_EEEEE13AnimationDataEEEEPT_SG_, symObjAddr: 0x9370, symBinAddr: 0x10001BA74, symSize: 0x24 }
  - { offset: 0x54E1A, size: 0x8, addend: 0x0, symName: __ZNSt3__19__launderB8ne180100INS_4pairIKN6Player14AnimationStateEZNS2_6updateERKNS_6vectorIN2sf14RectangleShapeENS_9allocatorIS7_EEEEE13AnimationDataEEEEPT_SG_, symObjAddr: 0x9394, symBinAddr: 0x10001BA98, symSize: 0x14 }
  - { offset: 0x54E53, size: 0x8, addend: 0x0, symName: __ZNSt3__127__tree_balance_after_insertB8ne180100IPNS_16__tree_node_baseIPvEEEEvT_S5_, symObjAddr: 0x941C, symBinAddr: 0x10001BB20, symSize: 0x27C }
  - { offset: 0x54ED6, size: 0x8, addend: 0x0, symName: __ZNSt3__118__tree_left_rotateB8ne180100IPNS_16__tree_node_baseIPvEEEEvT_, symObjAddr: 0x96C0, symBinAddr: 0x10001BDC4, symSize: 0xD8 }
  - { offset: 0x54F18, size: 0x8, addend: 0x0, symName: __ZNSt3__119__tree_right_rotateB8ne180100IPNS_16__tree_node_baseIPvEEEEvT_, symObjAddr: 0x9798, symBinAddr: 0x10001BE9C, symSize: 0xCC }
  - { offset: 0x54F5D, size: 0x8, addend: 0x0, symName: __ZNSt3__112__destroy_atB8ne180100INS_4pairIKN6Player14AnimationStateEZNS2_6updateERKNS_6vectorIN2sf14RectangleShapeENS_9allocatorIS7_EEEEE13AnimationDataEELi0EEEvPT_, symObjAddr: 0x9A90, symBinAddr: 0x10001C194, symSize: 0x10 }
  - { offset: 0x54F96, size: 0x8, addend: 0x0, symName: __ZNSt3__1neB8ne180100ERKNS_21__tree_const_iteratorINS_12__value_typeIN6Player14AnimationStateEZNS2_6updateERKNS_6vectorIN2sf14RectangleShapeENS_9allocatorIS6_EEEEE13AnimationDataEEPNS_11__tree_nodeISD_PvEElEESK_, symObjAddr: 0x9E28, symBinAddr: 0x10001C52C, symSize: 0x34 }
  - { offset: 0x569BE, size: 0x8, addend: 0x0, symName: __ZN6Player6updateERKNSt3__16vectorIN2sf14RectangleShapeENS0_9allocatorIS3_EEEE, symObjAddr: 0x151C, symBinAddr: 0x10001885C, symSize: 0xBA0 }
  - { offset: 0x569E5, size: 0x8, addend: 0x0, symName: __ZZN6Player6updateERKNSt3__16vectorIN2sf14RectangleShapeENS0_9allocatorIS3_EEEEE13animationData, symObjAddr: 0xC3EF8, symBinAddr: 0x100024000, symSize: 0x0 }
  - { offset: 0x57152, size: 0x8, addend: 0x0, symName: __ZNKSt3__16chrono15__duration_castINS0_8durationIfNS_5ratioILl1ELl1EEEEENS2_IxNS3_ILl1ELl1000000EEEEENS3_ILl1000000ELl1EEELb0ELb1EEclB8ne180100ERKS5_, symObjAddr: 0x2AE8, symBinAddr: 0x100019B30, symSize: 0x50 }
  - { offset: 0x571A7, size: 0x8, addend: 0x0, symName: __ZN6PlayerC2EffiiNSt3__110shared_ptrIN2sf7TextureEEE, symObjAddr: 0x0, symBinAddr: 0x1000176CC, symSize: 0x7C8 }
  - { offset: 0x57275, size: 0x8, addend: 0x0, symName: __ZN2sf5ClockC1Ev, symObjAddr: 0x888, symBinAddr: 0x100017EEC, symSize: 0x2C }
  - { offset: 0x572A1, size: 0x8, addend: 0x0, symName: __ZNSt3__18optionalIN2sf6SpriteEEC1B8ne180100Ev, symObjAddr: 0x8EC, symBinAddr: 0x100017F18, symSize: 0x2C }
  - { offset: 0x572EA, size: 0x8, addend: 0x0, symName: __ZNSt3__18optionalIN2sf6SpriteEE7emplaceB8ne180100IJRNS1_7TextureEEvEERS2_DpOT_, symObjAddr: 0xB54, symBinAddr: 0x100017F44, symSize: 0x40 }
  - { offset: 0x5732C, size: 0x8, addend: 0x0, symName: __ZNSt3__18optionalIN2sf6SpriteEEptB8ne180100Ev, symObjAddr: 0xB94, symBinAddr: 0x100017F84, symSize: 0x24 }
  - { offset: 0x57352, size: 0x8, addend: 0x0, symName: __ZN2sf5ColorC1Ev, symObjAddr: 0xBB8, symBinAddr: 0x100017FA8, symSize: 0x2C }
  - { offset: 0x5737C, size: 0x8, addend: 0x0, symName: __ZN6PlayerC1EffiiNSt3__110shared_ptrIN2sf7TextureEEE, symObjAddr: 0xC94, symBinAddr: 0x100017FD4, symSize: 0x54 }
  - { offset: 0x573F4, size: 0x8, addend: 0x0, symName: __ZN6Player16drawAimIndicatorERN2sf12RenderWindowE, symObjAddr: 0xCE8, symBinAddr: 0x100018028, symSize: 0x1B4 }
  - { offset: 0x57458, size: 0x8, addend: 0x0, symName: __ZNKSt3__18optionalIN2sf6SpriteEEcvbB8ne180100Ev, symObjAddr: 0xE9C, symBinAddr: 0x1000181DC, symSize: 0x28 }
  - { offset: 0x5747E, size: 0x8, addend: 0x0, symName: __ZNRSt3__18optionalIN2sf6SpriteEEdeB8ne180100Ev, symObjAddr: 0xFC8, symBinAddr: 0x100018308, symSize: 0x24 }
  - { offset: 0x574A4, size: 0x8, addend: 0x0, symName: __ZN6Player16handleThrowInputEbN2sf7Vector2IfEE, symObjAddr: 0xFEC, symBinAddr: 0x10001832C, symSize: 0x118 }
  - { offset: 0x574EA, size: 0x8, addend: 0x0, symName: __ZNK6Player15getReadyToThrowEv, symObjAddr: 0x1104, symBinAddr: 0x100018444, symSize: 0x1C }
  - { offset: 0x57512, size: 0x8, addend: 0x0, symName: __ZN6Player12releaseThrowEv, symObjAddr: 0x1120, symBinAddr: 0x100018460, symSize: 0xA4 }
  - { offset: 0x57558, size: 0x8, addend: 0x0, symName: __ZNK6Player15getControllerIdEv, symObjAddr: 0x11C4, symBinAddr: 0x100018504, symSize: 0x18 }
  - { offset: 0x57580, size: 0x8, addend: 0x0, symName: __ZN6Player11handleInputEv, symObjAddr: 0x11DC, symBinAddr: 0x10001851C, symSize: 0x2E8 }
  - { offset: 0x57602, size: 0x8, addend: 0x0, symName: __ZNKSt3__16vectorIN2sf14RectangleShapeENS_9allocatorIS2_EEE5beginB8ne180100Ev, symObjAddr: 0x20BC, symBinAddr: 0x1000193FC, symSize: 0x30 }
  - { offset: 0x5762A, size: 0x8, addend: 0x0, symName: __ZNKSt3__16vectorIN2sf14RectangleShapeENS_9allocatorIS2_EEE3endB8ne180100Ev, symObjAddr: 0x20EC, symBinAddr: 0x10001942C, symSize: 0x30 }
  - { offset: 0x57652, size: 0x8, addend: 0x0, symName: __ZNKSt3__111__wrap_iterIPKN2sf14RectangleShapeEEdeB8ne180100Ev, symObjAddr: 0x2150, symBinAddr: 0x100019490, symSize: 0x18 }
  - { offset: 0x57678, size: 0x8, addend: 0x0, symName: __ZNK6Player9getBoundsEv, symObjAddr: 0x2168, symBinAddr: 0x1000194A8, symSize: 0x44 }
  - { offset: 0x576A1, size: 0x8, addend: 0x0, symName: __ZNSt3__111__wrap_iterIPKN2sf14RectangleShapeEEppB8ne180100Ev, symObjAddr: 0x240C, symBinAddr: 0x1000194EC, symSize: 0x20 }
  - { offset: 0x576C7, size: 0x8, addend: 0x0, symName: __ZNSt3__13mapIN6Player14AnimationStateEZNS1_6updateERKNS_6vectorIN2sf14RectangleShapeENS_9allocatorIS5_EEEEE13AnimationDataNS_4lessIS2_EENS6_INS_4pairIKS2_SB_EEEEEC1B8ne180100ESt16initializer_listISG_ERKSD_, symObjAddr: 0x2444, symBinAddr: 0x10001950C, symSize: 0x44 }
  - { offset: 0x57711, size: 0x8, addend: 0x0, symName: __ZNSt3__13mapIN6Player14AnimationStateEZNS1_6updateERKNS_6vectorIN2sf14RectangleShapeENS_9allocatorIS5_EEEEE13AnimationDataNS_4lessIS2_EENS6_INS_4pairIKS2_SB_EEEEED1B8ne180100Ev, symObjAddr: 0x2488, symBinAddr: 0x100019550, symSize: 0x2C }
  - { offset: 0x5773B, size: 0x8, addend: 0x0, symName: __ZNKSt3__13mapIN6Player14AnimationStateEZNS1_6updateERKNS_6vectorIN2sf14RectangleShapeENS_9allocatorIS5_EEEEE13AnimationDataNS_4lessIS2_EENS6_INS_4pairIKS2_SB_EEEEE4findB8ne180100ERSF_, symObjAddr: 0x24B4, symBinAddr: 0x10001957C, symSize: 0x40 }
  - { offset: 0x57771, size: 0x8, addend: 0x0, symName: __ZNKSt3__13mapIN6Player14AnimationStateEZNS1_6updateERKNS_6vectorIN2sf14RectangleShapeENS_9allocatorIS5_EEEEE13AnimationDataNS_4lessIS2_EENS6_INS_4pairIKS2_SB_EEEEE3endB8ne180100Ev, symObjAddr: 0x2524, symBinAddr: 0x1000195EC, symSize: 0x38 }
  - { offset: 0x57797, size: 0x8, addend: 0x0, symName: __ZNKSt3__120__map_const_iteratorINS_21__tree_const_iteratorINS_12__value_typeIN6Player14AnimationStateEZNS3_6updateERKNS_6vectorIN2sf14RectangleShapeENS_9allocatorIS7_EEEEE13AnimationDataEEPNS_11__tree_nodeISE_PvEElEEEptB8ne180100Ev, symObjAddr: 0x255C, symBinAddr: 0x100019624, symSize: 0x2C }
  - { offset: 0x577BD, size: 0x8, addend: 0x0, symName: __ZN6Player4drawERN2sf12RenderWindowE, symObjAddr: 0x2588, symBinAddr: 0x100019650, symSize: 0x334 }
  - { offset: 0x5781F, size: 0x8, addend: 0x0, symName: __ZNK6Player11getPositionEv, symObjAddr: 0x28F0, symBinAddr: 0x100019984, symSize: 0x24 }
  - { offset: 0x57848, size: 0x8, addend: 0x0, symName: __ZNK6Player18getFacingDirectionEv, symObjAddr: 0x2914, symBinAddr: 0x1000199A8, symSize: 0x24 }
  - { offset: 0x57871, size: 0x8, addend: 0x0, symName: __ZNK6Player5getIdEv, symObjAddr: 0x2938, symBinAddr: 0x1000199CC, symSize: 0x18 }
  - { offset: 0x5789A, size: 0x8, addend: 0x0, symName: __ZNK6Player7isAliveEv, symObjAddr: 0x2950, symBinAddr: 0x1000199E4, symSize: 0x1C }
  - { offset: 0x578C3, size: 0x8, addend: 0x0, symName: __ZN6Player4killEv, symObjAddr: 0x296C, symBinAddr: 0x100019A00, symSize: 0x28 }
  - { offset: 0x578EC, size: 0x8, addend: 0x0, symName: __ZN6Player16startThrowChargeEv, symObjAddr: 0x2994, symBinAddr: 0x100019A28, symSize: 0x54 }
  - { offset: 0x57915, size: 0x8, addend: 0x0, symName: __ZNK6Player15isChargingThrowEv, symObjAddr: 0x29E8, symBinAddr: 0x100019A7C, symSize: 0x1C }
  - { offset: 0x5793E, size: 0x8, addend: 0x0, symName: __ZNSt3__16chrono8durationIfNS_5ratioILl1ELl1EEEEC1B8ne180100IfLi0EEERKT_, symObjAddr: 0x2A80, symBinAddr: 0x100019AC8, symSize: 0x34 }
  - { offset: 0x57986, size: 0x8, addend: 0x0, symName: __ZN2sf4TimeC1IxNSt3__15ratioILl1ELl1000000EEEEERKNS2_6chrono8durationIT_T0_EE, symObjAddr: 0x2AB4, symBinAddr: 0x100019AFC, symSize: 0x34 }
  - { offset: 0x579D1, size: 0x8, addend: 0x0, symName: __ZNKSt3__16chrono8durationIfNS_5ratioILl1ELl1EEEE5countB8ne180100Ev, symObjAddr: 0x2B38, symBinAddr: 0x100019B80, symSize: 0x18 }
  - { offset: 0x57A02, size: 0x8, addend: 0x0, symName: __ZNSt3__16chrono8durationIxNS_5ratioILl1ELl1000000EEEEC1B8ne180100IxLi0EEERKT_, symObjAddr: 0x2B50, symBinAddr: 0x100019B98, symSize: 0x34 }
  - { offset: 0x57A4A, size: 0x8, addend: 0x0, symName: __ZNSt3__16chrono8durationIxNS_5ratioILl1ELl1000000EEEEC2B8ne180100IxLi0EEERKT_, symObjAddr: 0x2B84, symBinAddr: 0x100019BCC, symSize: 0x24 }
  - { offset: 0x57A92, size: 0x8, addend: 0x0, symName: __ZNSt3__16chrono8durationIfNS_5ratioILl1ELl1EEEEC2B8ne180100IfLi0EEERKT_, symObjAddr: 0x2BA8, symBinAddr: 0x100019BF0, symSize: 0x24 }
  - { offset: 0x57ADA, size: 0x8, addend: 0x0, symName: __ZN2sf4TimeC2IxNSt3__15ratioILl1ELl1000000EEEEERKNS2_6chrono8durationIT_T0_EE, symObjAddr: 0x2BCC, symBinAddr: 0x100019C14, symSize: 0x24 }
  - { offset: 0x57B25, size: 0x8, addend: 0x0, symName: __ZN2sf5ClockC2Ev, symObjAddr: 0x2BF0, symBinAddr: 0x100019C38, symSize: 0x3C }
  - { offset: 0x57B51, size: 0x8, addend: 0x0, symName: __ZNSt3__16chrono10time_pointINS0_12steady_clockENS0_8durationIxNS_5ratioILl1ELl1000000000EEEEEEC1B8ne180100Ev, symObjAddr: 0x2C2C, symBinAddr: 0x100019C74, symSize: 0x2C }
  - { offset: 0x57B7B, size: 0x8, addend: 0x0, symName: __ZNSt3__16chrono10time_pointINS0_12steady_clockENS0_8durationIxNS_5ratioILl1ELl1000000000EEEEEEC2B8ne180100Ev, symObjAddr: 0x2C58, symBinAddr: 0x100019CA0, symSize: 0x34 }
  - { offset: 0x57BA5, size: 0x8, addend: 0x0, symName: __ZNSt3__16chrono8durationIxNS_5ratioILl1ELl1000000000EEEE4zeroB8ne180100Ev, symObjAddr: 0x2C8C, symBinAddr: 0x100019CD4, symSize: 0x38 }
  - { offset: 0x57BB9, size: 0x8, addend: 0x0, symName: __ZNSt3__16chrono15duration_valuesIxE4zeroB8ne180100Ev, symObjAddr: 0x2CC4, symBinAddr: 0x100019D0C, symSize: 0x8 }
  - { offset: 0x57BCD, size: 0x8, addend: 0x0, symName: __ZNSt3__16chrono8durationIxNS_5ratioILl1ELl1000000000EEEEC1B8ne180100IxLi0EEERKT_, symObjAddr: 0x2CCC, symBinAddr: 0x100019D14, symSize: 0x34 }
  - { offset: 0x57C15, size: 0x8, addend: 0x0, symName: __ZNSt3__16chrono8durationIxNS_5ratioILl1ELl1000000000EEEEC2B8ne180100IxLi0EEERKT_, symObjAddr: 0x2D10, symBinAddr: 0x100019D48, symSize: 0x24 }
  - { offset: 0x57C5D, size: 0x8, addend: 0x0, symName: __ZNSt3__18optionalIN2sf6SpriteEEC2B8ne180100Ev, symObjAddr: 0x2D34, symBinAddr: 0x100019D6C, symSize: 0x2C }
  - { offset: 0x57C87, size: 0x8, addend: 0x0, symName: __ZNSt3__127__optional_move_assign_baseIN2sf6SpriteELb0EEC2B8ne180100Ev, symObjAddr: 0x2D60, symBinAddr: 0x100019D98, symSize: 0x2C }
  - { offset: 0x57CB1, size: 0x8, addend: 0x0, symName: __ZNSt3__127__optional_copy_assign_baseIN2sf6SpriteELb0EEC2B8ne180100Ev, symObjAddr: 0x2D8C, symBinAddr: 0x100019DC4, symSize: 0x2C }
  - { offset: 0x57CDB, size: 0x8, addend: 0x0, symName: __ZNSt3__120__optional_move_baseIN2sf6SpriteELb0EEC2B8ne180100Ev, symObjAddr: 0x2DB8, symBinAddr: 0x100019DF0, symSize: 0x2C }
  - { offset: 0x57D05, size: 0x8, addend: 0x0, symName: __ZNRSt3__123__optional_storage_baseIN2sf6SpriteELb0EE5__getB8ne180100Ev, symObjAddr: 0x2F64, symBinAddr: 0x100019E1C, symSize: 0x14 }
  - { offset: 0x57D2B, size: 0x8, addend: 0x0, symName: __ZN2sf5ColorC2Ev, symObjAddr: 0x2F78, symBinAddr: 0x100019E30, symSize: 0x28 }
  - { offset: 0x57D55, size: 0x8, addend: 0x0, symName: __ZN2sf5AngleC1Ef, symObjAddr: 0x37B8, symBinAddr: 0x100019E58, symSize: 0x34 }
  - { offset: 0x57D90, size: 0x8, addend: 0x0, symName: __ZN2sf5AngleC2Ef, symObjAddr: 0x37EC, symBinAddr: 0x100019E8C, symSize: 0x20 }
  - { offset: 0x57DCB, size: 0x8, addend: 0x0, symName: __ZNK2sf4Time14asMicrosecondsEv, symObjAddr: 0x380C, symBinAddr: 0x100019EAC, symSize: 0x24 }
  - { offset: 0x57DF3, size: 0x8, addend: 0x0, symName: __ZNKSt3__16chrono8durationIxNS_5ratioILl1ELl1000000EEEE5countB8ne180100Ev, symObjAddr: 0x3830, symBinAddr: 0x100019ED0, symSize: 0x18 }
  - { offset: 0x57E19, size: 0x8, addend: 0x0, symName: __ZNKSt3__111__wrap_iterIPKN2sf14RectangleShapeEE4baseB8ne180100Ev, symObjAddr: 0x3890, symBinAddr: 0x100019F30, symSize: 0x18 }
  - { offset: 0x57E4A, size: 0x8, addend: 0x0, symName: __ZNSt3__124__optional_destruct_baseIN2sf6SpriteELb0EE5resetB8ne180100Ev, symObjAddr: 0x7844, symBinAddr: 0x100019F48, symSize: 0x44 }
  - { offset: 0x57E70, size: 0x8, addend: 0x0, symName: __ZNSt3__123__optional_storage_baseIN2sf6SpriteELb0EE11__constructB8ne180100IJRNS1_7TextureEEEEvDpOT_, symObjAddr: 0x7888, symBinAddr: 0x100019F8C, symSize: 0x3C }
  - { offset: 0x57EB1, size: 0x8, addend: 0x0, symName: __ZNKSt3__16vectorIN2sf14RectangleShapeENS_9allocatorIS2_EEE11__make_iterB8ne180100EPKS2_, symObjAddr: 0x78F8, symBinAddr: 0x100019FFC, symSize: 0x30 }
  - { offset: 0x57EE7, size: 0x8, addend: 0x0, symName: __ZNSt3__111__wrap_iterIPKN2sf14RectangleShapeEEC1B8ne180100ES4_, symObjAddr: 0x7928, symBinAddr: 0x10001A02C, symSize: 0x34 }
  - { offset: 0x57F20, size: 0x8, addend: 0x0, symName: __ZNSt3__111__wrap_iterIPKN2sf14RectangleShapeEEC2B8ne180100ES4_, symObjAddr: 0x795C, symBinAddr: 0x10001A060, symSize: 0x20 }
  - { offset: 0x57F59, size: 0x8, addend: 0x0, symName: __ZNSt3__13mapIN6Player14AnimationStateEZNS1_6updateERKNS_6vectorIN2sf14RectangleShapeENS_9allocatorIS5_EEEEE13AnimationDataNS_4lessIS2_EENS6_INS_4pairIKS2_SB_EEEEEC2B8ne180100ESt16initializer_listISG_ERKSD_, symObjAddr: 0x797C, symBinAddr: 0x10001A080, symSize: 0xA4 }
  - { offset: 0x57FA3, size: 0x8, addend: 0x0, symName: __ZNSt3__119__map_value_compareIN6Player14AnimationStateENS_12__value_typeIS2_ZNS1_6updateERKNS_6vectorIN2sf14RectangleShapeENS_9allocatorIS6_EEEEE13AnimationDataEENS_4lessIS2_EELb1EEC1B8ne180100ESF_, symObjAddr: 0x7A20, symBinAddr: 0x10001A124, symSize: 0x2C }
  - { offset: 0x57FDD, size: 0x8, addend: 0x0, symName: __ZNSt3__16__treeINS_12__value_typeIN6Player14AnimationStateEZNS2_6updateERKNS_6vectorIN2sf14RectangleShapeENS_9allocatorIS6_EEEEE13AnimationDataEENS_19__map_value_compareIS3_SD_NS_4lessIS3_EELb1EEENS7_ISD_EEEC1ERKSH_, symObjAddr: 0x7A4C, symBinAddr: 0x10001A150, symSize: 0x34 }
  - { offset: 0x58019, size: 0x8, addend: 0x0, symName: __ZNSt3__13mapIN6Player14AnimationStateEZNS1_6updateERKNS_6vectorIN2sf14RectangleShapeENS_9allocatorIS5_EEEEE13AnimationDataNS_4lessIS2_EENS6_INS_4pairIKS2_SB_EEEEE6insertB8ne180100IPKSG_EEvT_SM_, symObjAddr: 0x7A80, symBinAddr: 0x10001A184, symSize: 0x8C }
  - { offset: 0x58087, size: 0x8, addend: 0x0, symName: __ZNKSt16initializer_listINSt3__14pairIKN6Player14AnimationStateEZNS2_6updateERKNS0_6vectorIN2sf14RectangleShapeENS0_9allocatorIS7_EEEEE13AnimationDataEEE5beginB8ne180100Ev, symObjAddr: 0x7B0C, symBinAddr: 0x10001A210, symSize: 0x18 }
  - { offset: 0x580AD, size: 0x8, addend: 0x0, symName: __ZNKSt16initializer_listINSt3__14pairIKN6Player14AnimationStateEZNS2_6updateERKNS0_6vectorIN2sf14RectangleShapeENS0_9allocatorIS7_EEEEE13AnimationDataEEE3endB8ne180100Ev, symObjAddr: 0x7B24, symBinAddr: 0x10001A228, symSize: 0x20 }
  - { offset: 0x580D3, size: 0x8, addend: 0x0, symName: __ZNSt3__16__treeINS_12__value_typeIN6Player14AnimationStateEZNS2_6updateERKNS_6vectorIN2sf14RectangleShapeENS_9allocatorIS6_EEEEE13AnimationDataEENS_19__map_value_compareIS3_SD_NS_4lessIS3_EELb1EEENS7_ISD_EEED1Ev, symObjAddr: 0x7B44, symBinAddr: 0x10001A248, symSize: 0x2C }
  - { offset: 0x580FF, size: 0x8, addend: 0x0, symName: __ZNSt3__119__map_value_compareIN6Player14AnimationStateENS_12__value_typeIS2_ZNS1_6updateERKNS_6vectorIN2sf14RectangleShapeENS_9allocatorIS6_EEEEE13AnimationDataEENS_4lessIS2_EELb1EEC2B8ne180100ESF_, symObjAddr: 0x7B70, symBinAddr: 0x10001A274, symSize: 0x14 }
  - { offset: 0x58139, size: 0x8, addend: 0x0, symName: __ZNSt3__16__treeINS_12__value_typeIN6Player14AnimationStateEZNS2_6updateERKNS_6vectorIN2sf14RectangleShapeENS_9allocatorIS6_EEEEE13AnimationDataEENS_19__map_value_compareIS3_SD_NS_4lessIS3_EELb1EEENS7_ISD_EEEC2ERKSH_, symObjAddr: 0x7B84, symBinAddr: 0x10001A288, symSize: 0x7C }
  - { offset: 0x58175, size: 0x8, addend: 0x0, symName: __ZNSt3__117__compressed_pairINS_15__tree_end_nodeIPNS_16__tree_node_baseIPvEEEENS_9allocatorINS_11__tree_nodeINS_12__value_typeIN6Player14AnimationStateEZNSA_6updateERKNS_6vectorIN2sf14RectangleShapeENS7_ISE_EEEEE13AnimationDataEES3_EEEEEC1B8ne180100ILb1EvEEv, symObjAddr: 0x7C00, symBinAddr: 0x10001A304, symSize: 0x2C }
  - { offset: 0x581B0, size: 0x8, addend: 0x0, symName: __ZNSt3__117__compressed_pairImNS_19__map_value_compareIN6Player14AnimationStateENS_12__value_typeIS3_ZNS2_6updateERKNS_6vectorIN2sf14RectangleShapeENS_9allocatorIS7_EEEEE13AnimationDataEENS_4lessIS3_EELb1EEEEC1B8ne180100IiRKSH_EEOT_OT0_, symObjAddr: 0x7C2C, symBinAddr: 0x10001A330, symSize: 0x3C }
  - { offset: 0x5820A, size: 0x8, addend: 0x0, symName: __ZNSt3__16__treeINS_12__value_typeIN6Player14AnimationStateEZNS2_6updateERKNS_6vectorIN2sf14RectangleShapeENS_9allocatorIS6_EEEEE13AnimationDataEENS_19__map_value_compareIS3_SD_NS_4lessIS3_EELb1EEENS7_ISD_EEE10__end_nodeB8ne180100Ev, symObjAddr: 0x7C68, symBinAddr: 0x10001A36C, symSize: 0x2C }
  - { offset: 0x58230, size: 0x8, addend: 0x0, symName: __ZNSt3__16__treeINS_12__value_typeIN6Player14AnimationStateEZNS2_6updateERKNS_6vectorIN2sf14RectangleShapeENS_9allocatorIS6_EEEEE13AnimationDataEENS_19__map_value_compareIS3_SD_NS_4lessIS3_EELb1EEENS7_ISD_EEE12__begin_nodeB8ne180100Ev, symObjAddr: 0x7C94, symBinAddr: 0x10001A398, symSize: 0x14 }
  - { offset: 0x58256, size: 0x8, addend: 0x0, symName: __ZNSt3__117__compressed_pairINS_15__tree_end_nodeIPNS_16__tree_node_baseIPvEEEENS_9allocatorINS_11__tree_nodeINS_12__value_typeIN6Player14AnimationStateEZNSA_6updateERKNS_6vectorIN2sf14RectangleShapeENS7_ISE_EEEEE13AnimationDataEES3_EEEEEC2B8ne180100ILb1EvEEv, symObjAddr: 0x7CA8, symBinAddr: 0x10001A3AC, symSize: 0x34 }
  - { offset: 0x5828B, size: 0x8, addend: 0x0, symName: __ZNSt3__122__compressed_pair_elemINS_15__tree_end_nodeIPNS_16__tree_node_baseIPvEEEELi0ELb0EEC2B8ne180100ENS_16__value_init_tagE, symObjAddr: 0x7CDC, symBinAddr: 0x10001A3E0, symSize: 0x2C }
  - { offset: 0x582C0, size: 0x8, addend: 0x0, symName: __ZNSt3__122__compressed_pair_elemINS_9allocatorINS_11__tree_nodeINS_12__value_typeIN6Player14AnimationStateEZNS4_6updateERKNS_6vectorIN2sf14RectangleShapeENS1_IS8_EEEEE13AnimationDataEEPvEEEELi1ELb1EEC2B8ne180100ENS_16__value_init_tagE, symObjAddr: 0x7D08, symBinAddr: 0x10001A40C, symSize: 0x2C }
  - { offset: 0x582F5, size: 0x8, addend: 0x0, symName: __ZNSt3__115__tree_end_nodeIPNS_16__tree_node_baseIPvEEEC1B8ne180100Ev, symObjAddr: 0x7D34, symBinAddr: 0x10001A438, symSize: 0x2C }
  - { offset: 0x5831F, size: 0x8, addend: 0x0, symName: __ZNSt3__115__tree_end_nodeIPNS_16__tree_node_baseIPvEEEC2B8ne180100Ev, symObjAddr: 0x7D60, symBinAddr: 0x10001A464, symSize: 0x18 }
  - { offset: 0x58349, size: 0x8, addend: 0x0, symName: __ZNSt3__19allocatorINS_11__tree_nodeINS_12__value_typeIN6Player14AnimationStateEZNS3_6updateERKNS_6vectorIN2sf14RectangleShapeENS0_IS7_EEEEE13AnimationDataEEPvEEEC2B8ne180100Ev, symObjAddr: 0x7D78, symBinAddr: 0x10001A47C, symSize: 0x2C }
  - { offset: 0x58373, size: 0x8, addend: 0x0, symName: __ZNSt3__116__non_trivial_ifILb1ENS_9allocatorINS_11__tree_nodeINS_12__value_typeIN6Player14AnimationStateEZNS4_6updateERKNS_6vectorIN2sf14RectangleShapeENS1_IS8_EEEEE13AnimationDataEEPvEEEEEC2B8ne180100Ev, symObjAddr: 0x7DA4, symBinAddr: 0x10001A4A8, symSize: 0x14 }
  - { offset: 0x5839D, size: 0x8, addend: 0x0, symName: __ZNSt3__117__compressed_pairImNS_19__map_value_compareIN6Player14AnimationStateENS_12__value_typeIS3_ZNS2_6updateERKNS_6vectorIN2sf14RectangleShapeENS_9allocatorIS7_EEEEE13AnimationDataEENS_4lessIS3_EELb1EEEEC2B8ne180100IiRKSH_EEOT_OT0_, symObjAddr: 0x7DB8, symBinAddr: 0x10001A4BC, symSize: 0x44 }
  - { offset: 0x583F7, size: 0x8, addend: 0x0, symName: __ZNSt3__122__compressed_pair_elemImLi0ELb0EEC2B8ne180100IivEEOT_, symObjAddr: 0x7DFC, symBinAddr: 0x10001A500, symSize: 0x24 }
  - { offset: 0x5843A, size: 0x8, addend: 0x0, symName: __ZNSt3__122__compressed_pair_elemINS_19__map_value_compareIN6Player14AnimationStateENS_12__value_typeIS3_ZNS2_6updateERKNS_6vectorIN2sf14RectangleShapeENS_9allocatorIS7_EEEEE13AnimationDataEENS_4lessIS3_EELb1EEELi1ELb1EEC2B8ne180100IRKSH_vEEOT_, symObjAddr: 0x7E20, symBinAddr: 0x10001A524, symSize: 0x18 }
  - { offset: 0x5847D, size: 0x8, addend: 0x0, symName: __ZNSt3__114pointer_traitsIPNS_15__tree_end_nodeIPNS_16__tree_node_baseIPvEEEEE10pointer_toB8ne180100ERS6_, symObjAddr: 0x7E38, symBinAddr: 0x10001A53C, symSize: 0x14 }
  - { offset: 0x584A1, size: 0x8, addend: 0x0, symName: __ZNSt3__117__compressed_pairINS_15__tree_end_nodeIPNS_16__tree_node_baseIPvEEEENS_9allocatorINS_11__tree_nodeINS_12__value_typeIN6Player14AnimationStateEZNSA_6updateERKNS_6vectorIN2sf14RectangleShapeENS7_ISE_EEEEE13AnimationDataEES3_EEEEE5firstB8ne180100Ev, symObjAddr: 0x7E4C, symBinAddr: 0x10001A550, symSize: 0x24 }
  - { offset: 0x584C7, size: 0x8, addend: 0x0, symName: __ZNSt3__122__compressed_pair_elemINS_15__tree_end_nodeIPNS_16__tree_node_baseIPvEEEELi0ELb0EE5__getB8ne180100Ev, symObjAddr: 0x7E70, symBinAddr: 0x10001A574, symSize: 0x14 }
  - { offset: 0x584ED, size: 0x8, addend: 0x0, symName: __ZNKSt3__13mapIN6Player14AnimationStateEZNS1_6updateERKNS_6vectorIN2sf14RectangleShapeENS_9allocatorIS5_EEEEE13AnimationDataNS_4lessIS2_EENS6_INS_4pairIKS2_SB_EEEEE4cendB8ne180100Ev, symObjAddr: 0x7E84, symBinAddr: 0x10001A588, symSize: 0x2C }
  - { offset: 0x58513, size: 0x8, addend: 0x0, symName: __ZNSt3__13mapIN6Player14AnimationStateEZNS1_6updateERKNS_6vectorIN2sf14RectangleShapeENS_9allocatorIS5_EEEEE13AnimationDataNS_4lessIS2_EENS6_INS_4pairIKS2_SB_EEEEE6insertB8ne180100ENS_20__map_const_iteratorINS_21__tree_const_iteratorINS_12__value_typeIS2_SB_EEPNS_11__tree_nodeISM_PvEElEEEERKSG_, symObjAddr: 0x7EB0, symBinAddr: 0x10001A5B4, symSize: 0x50 }
  - { offset: 0x58559, size: 0x8, addend: 0x0, symName: __ZNSt3__120__map_const_iteratorINS_21__tree_const_iteratorINS_12__value_typeIN6Player14AnimationStateEZNS3_6updateERKNS_6vectorIN2sf14RectangleShapeENS_9allocatorIS7_EEEEE13AnimationDataEEPNS_11__tree_nodeISE_PvEElEEEC1B8ne180100ESJ_, symObjAddr: 0x7F00, symBinAddr: 0x10001A604, symSize: 0x34 }
  - { offset: 0x58593, size: 0x8, addend: 0x0, symName: __ZNSt3__16__treeINS_12__value_typeIN6Player14AnimationStateEZNS2_6updateERKNS_6vectorIN2sf14RectangleShapeENS_9allocatorIS6_EEEEE13AnimationDataEENS_19__map_value_compareIS3_SD_NS_4lessIS3_EELb1EEENS7_ISD_EEE15__insert_uniqueB8ne180100ENS_21__tree_const_iteratorISD_PNS_11__tree_nodeISD_PvEElEERKNS_4pairIKS3_SC_EE, symObjAddr: 0x7F34, symBinAddr: 0x10001A638, symSize: 0x64 }
  - { offset: 0x585D9, size: 0x8, addend: 0x0, symName: __ZNSt3__114__map_iteratorINS_15__tree_iteratorINS_12__value_typeIN6Player14AnimationStateEZNS3_6updateERKNS_6vectorIN2sf14RectangleShapeENS_9allocatorIS7_EEEEE13AnimationDataEEPNS_11__tree_nodeISE_PvEElEEEC1B8ne180100ESJ_, symObjAddr: 0x7F98, symBinAddr: 0x10001A69C, symSize: 0x34 }
  - { offset: 0x58613, size: 0x8, addend: 0x0, symName: __ZNSt3__16__treeINS_12__value_typeIN6Player14AnimationStateEZNS2_6updateERKNS_6vectorIN2sf14RectangleShapeENS_9allocatorIS6_EEEEE13AnimationDataEENS_19__map_value_compareIS3_SD_NS_4lessIS3_EELb1EEENS7_ISD_EEE30__emplace_hint_unique_key_argsIS3_JRKNS_4pairIKS3_SC_EEEEENSL_INS_15__tree_iteratorISD_PNS_11__tree_nodeISD_PvEElEEbEENS_21__tree_const_iteratorISD_SU_lEERKT_DpOT0_, symObjAddr: 0x7FCC, symBinAddr: 0x10001A6D0, symSize: 0x104 }
  - { offset: 0x586E9, size: 0x8, addend: 0x0, symName: __ZNSt3__122__tree_key_value_typesINS_12__value_typeIN6Player14AnimationStateEZNS2_6updateERKNS_6vectorIN2sf14RectangleShapeENS_9allocatorIS6_EEEEE13AnimationDataEEE9__get_keyB8ne180100IKNS_4pairIKS3_SC_EELi0EEERSH_RT_, symObjAddr: 0x80D0, symBinAddr: 0x10001A7D4, symSize: 0x14 }
  - { offset: 0x5871D, size: 0x8, addend: 0x0, symName: __ZNSt3__16__treeINS_12__value_typeIN6Player14AnimationStateEZNS2_6updateERKNS_6vectorIN2sf14RectangleShapeENS_9allocatorIS6_EEEEE13AnimationDataEENS_19__map_value_compareIS3_SD_NS_4lessIS3_EELb1EEENS7_ISD_EEE12__find_equalIS3_EERPNS_16__tree_node_baseIPvEENS_21__tree_const_iteratorISD_PNS_11__tree_nodeISD_SM_EElEERPNS_15__tree_end_nodeISO_EESP_RKT_, symObjAddr: 0x80E4, symBinAddr: 0x10001A7E8, symSize: 0x304 }
  - { offset: 0x587CE, size: 0x8, addend: 0x0, symName: __ZNSt3__16__treeINS_12__value_typeIN6Player14AnimationStateEZNS2_6updateERKNS_6vectorIN2sf14RectangleShapeENS_9allocatorIS6_EEEEE13AnimationDataEENS_19__map_value_compareIS3_SD_NS_4lessIS3_EELb1EEENS7_ISD_EEE16__construct_nodeIJRKNS_4pairIKS3_SC_EEEEENS_10unique_ptrINS_11__tree_nodeISD_PvEENS_22__tree_node_destructorINS7_IST_EEEEEEDpOT_, symObjAddr: 0x83E8, symBinAddr: 0x10001AAEC, symSize: 0x110 }
  - { offset: 0x58832, size: 0x8, addend: 0x0, symName: __ZNSt3__16__treeINS_12__value_typeIN6Player14AnimationStateEZNS2_6updateERKNS_6vectorIN2sf14RectangleShapeENS_9allocatorIS6_EEEEE13AnimationDataEENS_19__map_value_compareIS3_SD_NS_4lessIS3_EELb1EEENS7_ISD_EEE16__insert_node_atEPNS_15__tree_end_nodeIPNS_16__tree_node_baseIPvEEEERSO_SO_, symObjAddr: 0x84F8, symBinAddr: 0x10001ABFC, symSize: 0xCC }
  - { offset: 0x5888A, size: 0x8, addend: 0x0, symName: __ZNKSt3__110unique_ptrINS_11__tree_nodeINS_12__value_typeIN6Player14AnimationStateEZNS3_6updateERKNS_6vectorIN2sf14RectangleShapeENS_9allocatorIS7_EEEEE13AnimationDataEEPvEENS_22__tree_node_destructorINS8_ISG_EEEEE3getB8ne180100Ev, symObjAddr: 0x85C4, symBinAddr: 0x10001ACC8, symSize: 0x28 }
  - { offset: 0x588B0, size: 0x8, addend: 0x0, symName: __ZNSt3__110unique_ptrINS_11__tree_nodeINS_12__value_typeIN6Player14AnimationStateEZNS3_6updateERKNS_6vectorIN2sf14RectangleShapeENS_9allocatorIS7_EEEEE13AnimationDataEEPvEENS_22__tree_node_destructorINS8_ISG_EEEEE7releaseB8ne180100Ev, symObjAddr: 0x85EC, symBinAddr: 0x10001ACF0, symSize: 0x44 }
  - { offset: 0x588E6, size: 0x8, addend: 0x0, symName: __ZNSt3__110unique_ptrINS_11__tree_nodeINS_12__value_typeIN6Player14AnimationStateEZNS3_6updateERKNS_6vectorIN2sf14RectangleShapeENS_9allocatorIS7_EEEEE13AnimationDataEEPvEENS_22__tree_node_destructorINS8_ISG_EEEEED1B8ne180100Ev, symObjAddr: 0x8630, symBinAddr: 0x10001AD34, symSize: 0x2C }
  - { offset: 0x58910, size: 0x8, addend: 0x0, symName: __ZNSt3__115__tree_iteratorINS_12__value_typeIN6Player14AnimationStateEZNS2_6updateERKNS_6vectorIN2sf14RectangleShapeENS_9allocatorIS6_EEEEE13AnimationDataEEPNS_11__tree_nodeISD_PvEElEC1B8ne180100ESH_, symObjAddr: 0x865C, symBinAddr: 0x10001AD60, symSize: 0x34 }
  - { offset: 0x58956, size: 0x8, addend: 0x0, symName: __ZNSt3__14pairINS_15__tree_iteratorINS_12__value_typeIN6Player14AnimationStateEZNS3_6updateERKNS_6vectorIN2sf14RectangleShapeENS_9allocatorIS7_EEEEE13AnimationDataEEPNS_11__tree_nodeISE_PvEElEEbEC1B8ne180100ISJ_RbLi0EEEOT_OT0_, symObjAddr: 0x8690, symBinAddr: 0x10001AD94, symSize: 0x3C }
  - { offset: 0x589B6, size: 0x8, addend: 0x0, symName: __ZNSt3__16__treeINS_12__value_typeIN6Player14AnimationStateEZNS2_6updateERKNS_6vectorIN2sf14RectangleShapeENS_9allocatorIS6_EEEEE13AnimationDataEENS_19__map_value_compareIS3_SD_NS_4lessIS3_EELb1EEENS7_ISD_EEE3endB8ne180100Ev, symObjAddr: 0x86FC, symBinAddr: 0x10001AE00, symSize: 0x34 }
  - { offset: 0x589DC, size: 0x8, addend: 0x0, symName: __ZNSt3__121__tree_const_iteratorINS_12__value_typeIN6Player14AnimationStateEZNS2_6updateERKNS_6vectorIN2sf14RectangleShapeENS_9allocatorIS6_EEEEE13AnimationDataEEPNS_11__tree_nodeISD_PvEElEC1B8ne180100ENS_15__tree_iteratorISD_SH_lEE, symObjAddr: 0x8730, symBinAddr: 0x10001AE34, symSize: 0x34 }
  - { offset: 0x58A16, size: 0x8, addend: 0x0, symName: __ZNSt3__16__treeINS_12__value_typeIN6Player14AnimationStateEZNS2_6updateERKNS_6vectorIN2sf14RectangleShapeENS_9allocatorIS6_EEEEE13AnimationDataEENS_19__map_value_compareIS3_SD_NS_4lessIS3_EELb1EEENS7_ISD_EEE10value_compB8ne180100Ev, symObjAddr: 0x8764, symBinAddr: 0x10001AE68, symSize: 0x28 }
  - { offset: 0x58A3C, size: 0x8, addend: 0x0, symName: __ZNKSt3__119__map_value_compareIN6Player14AnimationStateENS_12__value_typeIS2_ZNS1_6updateERKNS_6vectorIN2sf14RectangleShapeENS_9allocatorIS6_EEEEE13AnimationDataEENS_4lessIS2_EELb1EEclB8ne180100ERKS2_RKSD_, symObjAddr: 0x878C, symBinAddr: 0x10001AE90, symSize: 0x50 }
  - { offset: 0x58A82, size: 0x8, addend: 0x0, symName: __ZNKSt3__121__tree_const_iteratorINS_12__value_typeIN6Player14AnimationStateEZNS2_6updateERKNS_6vectorIN2sf14RectangleShapeENS_9allocatorIS6_EEEEE13AnimationDataEEPNS_11__tree_nodeISD_PvEElEdeB8ne180100Ev, symObjAddr: 0x87DC, symBinAddr: 0x10001AEE0, symSize: 0x28 }
  - { offset: 0x58AA8, size: 0x8, addend: 0x0, symName: __ZNSt3__16__treeINS_12__value_typeIN6Player14AnimationStateEZNS2_6updateERKNS_6vectorIN2sf14RectangleShapeENS_9allocatorIS6_EEEEE13AnimationDataEENS_19__map_value_compareIS3_SD_NS_4lessIS3_EELb1EEENS7_ISD_EEE5beginB8ne180100Ev, symObjAddr: 0x8804, symBinAddr: 0x10001AF08, symSize: 0x34 }
  - { offset: 0x58ACE, size: 0x8, addend: 0x0, symName: __ZNKSt3__119__map_value_compareIN6Player14AnimationStateENS_12__value_typeIS2_ZNS1_6updateERKNS_6vectorIN2sf14RectangleShapeENS_9allocatorIS6_EEEEE13AnimationDataEENS_4lessIS2_EELb1EEclB8ne180100ERKSD_RKS2_, symObjAddr: 0x8838, symBinAddr: 0x10001AF3C, symSize: 0x48 }
  - { offset: 0x58B14, size: 0x8, addend: 0x0, symName: __ZNSt3__121__tree_const_iteratorINS_12__value_typeIN6Player14AnimationStateEZNS2_6updateERKNS_6vectorIN2sf14RectangleShapeENS_9allocatorIS6_EEEEE13AnimationDataEEPNS_11__tree_nodeISD_PvEElEmmB8ne180100Ev, symObjAddr: 0x8880, symBinAddr: 0x10001AF84, symSize: 0x38 }
  - { offset: 0x58B3A, size: 0x8, addend: 0x0, symName: __ZNSt3__16__treeINS_12__value_typeIN6Player14AnimationStateEZNS2_6updateERKNS_6vectorIN2sf14RectangleShapeENS_9allocatorIS6_EEEEE13AnimationDataEENS_19__map_value_compareIS3_SD_NS_4lessIS3_EELb1EEENS7_ISD_EEE12__find_equalIS3_EERPNS_16__tree_node_baseIPvEERPNS_15__tree_end_nodeISO_EERKT_, symObjAddr: 0x88B8, symBinAddr: 0x10001AFBC, symSize: 0x184 }
  - { offset: 0x58BAB, size: 0x8, addend: 0x0, symName: __ZNKSt3__121__tree_const_iteratorINS_12__value_typeIN6Player14AnimationStateEZNS2_6updateERKNS_6vectorIN2sf14RectangleShapeENS_9allocatorIS6_EEEEE13AnimationDataEEPNS_11__tree_nodeISD_PvEElE8__get_npB8ne180100Ev, symObjAddr: 0x8A78, symBinAddr: 0x10001B17C, symSize: 0x18 }
  - { offset: 0x58BD1, size: 0x8, addend: 0x0, symName: __ZNSt3__115__tree_iteratorINS_12__value_typeIN6Player14AnimationStateEZNS2_6updateERKNS_6vectorIN2sf14RectangleShapeENS_9allocatorIS6_EEEEE13AnimationDataEEPNS_11__tree_nodeISD_PvEElEC1B8ne180100EPNS_15__tree_end_nodeIPNS_16__tree_node_baseISF_EEEE, symObjAddr: 0x8A90, symBinAddr: 0x10001B194, symSize: 0x34 }
  - { offset: 0x58C0B, size: 0x8, addend: 0x0, symName: __ZNSt3__115__tree_iteratorINS_12__value_typeIN6Player14AnimationStateEZNS2_6updateERKNS_6vectorIN2sf14RectangleShapeENS_9allocatorIS6_EEEEE13AnimationDataEEPNS_11__tree_nodeISD_PvEElEC2B8ne180100EPNS_15__tree_end_nodeIPNS_16__tree_node_baseISF_EEEE, symObjAddr: 0x8AC4, symBinAddr: 0x10001B1C8, symSize: 0x20 }
  - { offset: 0x58C45, size: 0x8, addend: 0x0, symName: __ZNSt3__121__tree_const_iteratorINS_12__value_typeIN6Player14AnimationStateEZNS2_6updateERKNS_6vectorIN2sf14RectangleShapeENS_9allocatorIS6_EEEEE13AnimationDataEEPNS_11__tree_nodeISD_PvEElEC2B8ne180100ENS_15__tree_iteratorISD_SH_lEE, symObjAddr: 0x8AE4, symBinAddr: 0x10001B1E8, symSize: 0x20 }
  - { offset: 0x58C7F, size: 0x8, addend: 0x0, symName: __ZNSt3__117__compressed_pairImNS_19__map_value_compareIN6Player14AnimationStateENS_12__value_typeIS3_ZNS2_6updateERKNS_6vectorIN2sf14RectangleShapeENS_9allocatorIS7_EEEEE13AnimationDataEENS_4lessIS3_EELb1EEEE6secondB8ne180100Ev, symObjAddr: 0x8B04, symBinAddr: 0x10001B208, symSize: 0x24 }
  - { offset: 0x58CA5, size: 0x8, addend: 0x0, symName: __ZNSt3__122__compressed_pair_elemINS_19__map_value_compareIN6Player14AnimationStateENS_12__value_typeIS3_ZNS2_6updateERKNS_6vectorIN2sf14RectangleShapeENS_9allocatorIS7_EEEEE13AnimationDataEENS_4lessIS3_EELb1EEELi1ELb1EE5__getB8ne180100Ev, symObjAddr: 0x8B28, symBinAddr: 0x10001B22C, symSize: 0x14 }
  - { offset: 0x58CCB, size: 0x8, addend: 0x0, symName: __ZNKSt3__14lessIN6Player14AnimationStateEEclB8ne180100ERKS2_S5_, symObjAddr: 0x8B3C, symBinAddr: 0x10001B240, symSize: 0x34 }
  - { offset: 0x58D11, size: 0x8, addend: 0x0, symName: __ZNKSt3__112__value_typeIN6Player14AnimationStateEZNS1_6updateERKNS_6vectorIN2sf14RectangleShapeENS_9allocatorIS5_EEEEE13AnimationDataE11__get_valueB8ne180100Ev, symObjAddr: 0x8B70, symBinAddr: 0x10001B274, symSize: 0x24 }
  - { offset: 0x58D37, size: 0x8, addend: 0x0, symName: __ZNKSt3__116__tree_node_baseIPvE15__parent_unsafeB8ne180100Ev, symObjAddr: 0x8CDC, symBinAddr: 0x10001B3E0, symSize: 0x18 }
  - { offset: 0x58D5D, size: 0x8, addend: 0x0, symName: __ZNKSt3__16__treeINS_12__value_typeIN6Player14AnimationStateEZNS2_6updateERKNS_6vectorIN2sf14RectangleShapeENS_9allocatorIS6_EEEEE13AnimationDataEENS_19__map_value_compareIS3_SD_NS_4lessIS3_EELb1EEENS7_ISD_EEE6__rootB8ne180100Ev, symObjAddr: 0x8CF4, symBinAddr: 0x10001B3F8, symSize: 0x28 }
  - { offset: 0x58D83, size: 0x8, addend: 0x0, symName: __ZNKSt3__16__treeINS_12__value_typeIN6Player14AnimationStateEZNS2_6updateERKNS_6vectorIN2sf14RectangleShapeENS_9allocatorIS6_EEEEE13AnimationDataEENS_19__map_value_compareIS3_SD_NS_4lessIS3_EELb1EEENS7_ISD_EEE10__root_ptrB8ne180100Ev, symObjAddr: 0x8D1C, symBinAddr: 0x10001B420, symSize: 0x24 }
  - { offset: 0x58DA9, size: 0x8, addend: 0x0, symName: __ZNKSt3__16__treeINS_12__value_typeIN6Player14AnimationStateEZNS2_6updateERKNS_6vectorIN2sf14RectangleShapeENS_9allocatorIS6_EEEEE13AnimationDataEENS_19__map_value_compareIS3_SD_NS_4lessIS3_EELb1EEENS7_ISD_EEE10__end_nodeB8ne180100Ev, symObjAddr: 0x8D40, symBinAddr: 0x10001B444, symSize: 0x2C }
  - { offset: 0x58DCF, size: 0x8, addend: 0x0, symName: __ZNKSt3__117__compressed_pairINS_15__tree_end_nodeIPNS_16__tree_node_baseIPvEEEENS_9allocatorINS_11__tree_nodeINS_12__value_typeIN6Player14AnimationStateEZNSA_6updateERKNS_6vectorIN2sf14RectangleShapeENS7_ISE_EEEEE13AnimationDataEES3_EEEEE5firstB8ne180100Ev, symObjAddr: 0x8D6C, symBinAddr: 0x10001B470, symSize: 0x24 }
  - { offset: 0x58DF5, size: 0x8, addend: 0x0, symName: __ZNKSt3__122__compressed_pair_elemINS_15__tree_end_nodeIPNS_16__tree_node_baseIPvEEEELi0ELb0EE5__getB8ne180100Ev, symObjAddr: 0x8D90, symBinAddr: 0x10001B494, symSize: 0x14 }
  - { offset: 0x58E1B, size: 0x8, addend: 0x0, symName: __ZNSt3__121__tree_const_iteratorINS_12__value_typeIN6Player14AnimationStateEZNS2_6updateERKNS_6vectorIN2sf14RectangleShapeENS_9allocatorIS6_EEEEE13AnimationDataEEPNS_11__tree_nodeISD_PvEElEppB8ne180100Ev, symObjAddr: 0x8E94, symBinAddr: 0x10001B598, symSize: 0x38 }
  - { offset: 0x58E41, size: 0x8, addend: 0x0, symName: __ZNSt3__16__treeINS_12__value_typeIN6Player14AnimationStateEZNS2_6updateERKNS_6vectorIN2sf14RectangleShapeENS_9allocatorIS6_EEEEE13AnimationDataEENS_19__map_value_compareIS3_SD_NS_4lessIS3_EELb1EEENS7_ISD_EEE12__node_allocB8ne180100Ev, symObjAddr: 0x8F8C, symBinAddr: 0x10001B690, symSize: 0x28 }
  - { offset: 0x58E67, size: 0x8, addend: 0x0, symName: __ZNSt3__116allocator_traitsINS_9allocatorINS_11__tree_nodeINS_12__value_typeIN6Player14AnimationStateEZNS4_6updateERKNS_6vectorIN2sf14RectangleShapeENS1_IS8_EEEEE13AnimationDataEEPvEEEEE8allocateB8ne180100ERSH_m, symObjAddr: 0x8FB4, symBinAddr: 0x10001B6B8, symSize: 0x2C }
  - { offset: 0x58E9C, size: 0x8, addend: 0x0, symName: __ZNSt3__122__tree_node_destructorINS_9allocatorINS_11__tree_nodeINS_12__value_typeIN6Player14AnimationStateEZNS4_6updateERKNS_6vectorIN2sf14RectangleShapeENS1_IS8_EEEEE13AnimationDataEEPvEEEEEC1B8ne180100ERSH_b, symObjAddr: 0x8FE0, symBinAddr: 0x10001B6E4, symSize: 0x48 }
  - { offset: 0x58EEC, size: 0x8, addend: 0x0, symName: __ZNSt3__110unique_ptrINS_11__tree_nodeINS_12__value_typeIN6Player14AnimationStateEZNS3_6updateERKNS_6vectorIN2sf14RectangleShapeENS_9allocatorIS7_EEEEE13AnimationDataEEPvEENS_22__tree_node_destructorINS8_ISG_EEEEEC1B8ne180100ILb1EvEEPSG_NS_16__dependent_typeINS_27__unique_ptr_deleter_sfinaeISJ_EEXT_EE20__good_rval_ref_typeE, symObjAddr: 0x9028, symBinAddr: 0x10001B72C, symSize: 0x3C }
  - { offset: 0x58F3F, size: 0x8, addend: 0x0, symName: __ZNSt3__116allocator_traitsINS_9allocatorINS_11__tree_nodeINS_12__value_typeIN6Player14AnimationStateEZNS4_6updateERKNS_6vectorIN2sf14RectangleShapeENS1_IS8_EEEEE13AnimationDataEEPvEEEEE9constructB8ne180100INS_4pairIKS5_SD_EEJRKSM_EvEEvRSH_PT_DpOT0_, symObjAddr: 0x9064, symBinAddr: 0x10001B768, symSize: 0x34 }
  - { offset: 0x58F99, size: 0x8, addend: 0x0, symName: __ZNSt3__122__tree_key_value_typesINS_12__value_typeIN6Player14AnimationStateEZNS2_6updateERKNS_6vectorIN2sf14RectangleShapeENS_9allocatorIS6_EEEEE13AnimationDataEEE9__get_ptrB8ne180100ERSD_, symObjAddr: 0x9098, symBinAddr: 0x10001B79C, symSize: 0x24 }
  - { offset: 0x58FBE, size: 0x8, addend: 0x0, symName: __ZNKSt3__110unique_ptrINS_11__tree_nodeINS_12__value_typeIN6Player14AnimationStateEZNS3_6updateERKNS_6vectorIN2sf14RectangleShapeENS_9allocatorIS7_EEEEE13AnimationDataEEPvEENS_22__tree_node_destructorINS8_ISG_EEEEEptB8ne180100Ev, symObjAddr: 0x90BC, symBinAddr: 0x10001B7C0, symSize: 0x28 }
  - { offset: 0x58FE4, size: 0x8, addend: 0x0, symName: __ZNSt3__110unique_ptrINS_11__tree_nodeINS_12__value_typeIN6Player14AnimationStateEZNS3_6updateERKNS_6vectorIN2sf14RectangleShapeENS_9allocatorIS7_EEEEE13AnimationDataEEPvEENS_22__tree_node_destructorINS8_ISG_EEEEE11get_deleterB8ne180100Ev, symObjAddr: 0x90E4, symBinAddr: 0x10001B7E8, symSize: 0x24 }
  - { offset: 0x5900A, size: 0x8, addend: 0x0, symName: __ZNSt3__117__compressed_pairINS_15__tree_end_nodeIPNS_16__tree_node_baseIPvEEEENS_9allocatorINS_11__tree_nodeINS_12__value_typeIN6Player14AnimationStateEZNSA_6updateERKNS_6vectorIN2sf14RectangleShapeENS7_ISE_EEEEE13AnimationDataEES3_EEEEE6secondB8ne180100Ev, symObjAddr: 0x9108, symBinAddr: 0x10001B80C, symSize: 0x24 }
  - { offset: 0x59030, size: 0x8, addend: 0x0, symName: __ZNSt3__122__compressed_pair_elemINS_9allocatorINS_11__tree_nodeINS_12__value_typeIN6Player14AnimationStateEZNS4_6updateERKNS_6vectorIN2sf14RectangleShapeENS1_IS8_EEEEE13AnimationDataEEPvEEEELi1ELb1EE5__getB8ne180100Ev, symObjAddr: 0x912C, symBinAddr: 0x10001B830, symSize: 0x14 }
  - { offset: 0x59056, size: 0x8, addend: 0x0, symName: __ZNSt3__19allocatorINS_11__tree_nodeINS_12__value_typeIN6Player14AnimationStateEZNS3_6updateERKNS_6vectorIN2sf14RectangleShapeENS0_IS7_EEEEE13AnimationDataEEPvEEE8allocateB8ne180100Em, symObjAddr: 0x9140, symBinAddr: 0x10001B844, symSize: 0x5C }
  - { offset: 0x59096, size: 0x8, addend: 0x0, symName: __ZNSt3__116allocator_traitsINS_9allocatorINS_11__tree_nodeINS_12__value_typeIN6Player14AnimationStateEZNS4_6updateERKNS_6vectorIN2sf14RectangleShapeENS1_IS8_EEEEE13AnimationDataEEPvEEEEE8max_sizeB8ne180100ISH_vEEmRKSH_, symObjAddr: 0x919C, symBinAddr: 0x10001B8A0, symSize: 0x24 }
  - { offset: 0x590C5, size: 0x8, addend: 0x0, symName: __ZNKSt3__19allocatorINS_11__tree_nodeINS_12__value_typeIN6Player14AnimationStateEZNS3_6updateERKNS_6vectorIN2sf14RectangleShapeENS0_IS7_EEEEE13AnimationDataEEPvEEE8max_sizeB8ne180100Ev, symObjAddr: 0x91C0, symBinAddr: 0x10001B8C4, symSize: 0x18 }
  - { offset: 0x590EB, size: 0x8, addend: 0x0, symName: __ZNSt3__122__tree_node_destructorINS_9allocatorINS_11__tree_nodeINS_12__value_typeIN6Player14AnimationStateEZNS4_6updateERKNS_6vectorIN2sf14RectangleShapeENS1_IS8_EEEEE13AnimationDataEEPvEEEEEC2B8ne180100ERSH_b, symObjAddr: 0x91D8, symBinAddr: 0x10001B8DC, symSize: 0x38 }
  - { offset: 0x59135, size: 0x8, addend: 0x0, symName: __ZNSt3__110unique_ptrINS_11__tree_nodeINS_12__value_typeIN6Player14AnimationStateEZNS3_6updateERKNS_6vectorIN2sf14RectangleShapeENS_9allocatorIS7_EEEEE13AnimationDataEEPvEENS_22__tree_node_destructorINS8_ISG_EEEEEC2B8ne180100ILb1EvEEPSG_NS_16__dependent_typeINS_27__unique_ptr_deleter_sfinaeISJ_EEXT_EE20__good_rval_ref_typeE, symObjAddr: 0x9210, symBinAddr: 0x10001B914, symSize: 0x48 }
  - { offset: 0x59188, size: 0x8, addend: 0x0, symName: __ZNSt3__117__compressed_pairIPNS_11__tree_nodeINS_12__value_typeIN6Player14AnimationStateEZNS3_6updateERKNS_6vectorIN2sf14RectangleShapeENS_9allocatorIS7_EEEEE13AnimationDataEEPvEENS_22__tree_node_destructorINS8_ISG_EEEEEC1B8ne180100IRSH_SK_EEOT_OT0_, symObjAddr: 0x9258, symBinAddr: 0x10001B95C, symSize: 0x3C }
  - { offset: 0x591E2, size: 0x8, addend: 0x0, symName: __ZNSt3__117__compressed_pairIPNS_11__tree_nodeINS_12__value_typeIN6Player14AnimationStateEZNS3_6updateERKNS_6vectorIN2sf14RectangleShapeENS_9allocatorIS7_EEEEE13AnimationDataEEPvEENS_22__tree_node_destructorINS8_ISG_EEEEEC2B8ne180100IRSH_SK_EEOT_OT0_, symObjAddr: 0x9294, symBinAddr: 0x10001B998, symSize: 0x48 }
  - { offset: 0x5923C, size: 0x8, addend: 0x0, symName: __ZNSt3__122__compressed_pair_elemIPNS_11__tree_nodeINS_12__value_typeIN6Player14AnimationStateEZNS3_6updateERKNS_6vectorIN2sf14RectangleShapeENS_9allocatorIS7_EEEEE13AnimationDataEEPvEELi0ELb0EEC2B8ne180100IRSH_vEEOT_, symObjAddr: 0x92DC, symBinAddr: 0x10001B9E0, symSize: 0x24 }
  - { offset: 0x5927F, size: 0x8, addend: 0x0, symName: __ZNSt3__122__compressed_pair_elemINS_22__tree_node_destructorINS_9allocatorINS_11__tree_nodeINS_12__value_typeIN6Player14AnimationStateEZNS5_6updateERKNS_6vectorIN2sf14RectangleShapeENS2_IS9_EEEEE13AnimationDataEEPvEEEEEELi1ELb0EEC2B8ne180100ISJ_vEEOT_, symObjAddr: 0x9300, symBinAddr: 0x10001BA04, symSize: 0x24 }
  - { offset: 0x592C2, size: 0x8, addend: 0x0, symName: __ZNSt3__19allocatorINS_11__tree_nodeINS_12__value_typeIN6Player14AnimationStateEZNS3_6updateERKNS_6vectorIN2sf14RectangleShapeENS0_IS7_EEEEE13AnimationDataEEPvEEE9constructB8ne180100INS_4pairIKS4_SC_EEJRKSK_EEEvPT_DpOT0_, symObjAddr: 0x9324, symBinAddr: 0x10001BA28, symSize: 0x28 }
  - { offset: 0x5931A, size: 0x8, addend: 0x0, symName: __ZNSt3__112__value_typeIN6Player14AnimationStateEZNS1_6updateERKNS_6vectorIN2sf14RectangleShapeENS_9allocatorIS5_EEEEE13AnimationDataE11__get_valueB8ne180100Ev, symObjAddr: 0x934C, symBinAddr: 0x10001BA50, symSize: 0x24 }
  - { offset: 0x59340, size: 0x8, addend: 0x0, symName: __ZNKSt3__117__compressed_pairIPNS_11__tree_nodeINS_12__value_typeIN6Player14AnimationStateEZNS3_6updateERKNS_6vectorIN2sf14RectangleShapeENS_9allocatorIS7_EEEEE13AnimationDataEEPvEENS_22__tree_node_destructorINS8_ISG_EEEEE5firstB8ne180100Ev, symObjAddr: 0x93A8, symBinAddr: 0x10001BAAC, symSize: 0x24 }
  - { offset: 0x59366, size: 0x8, addend: 0x0, symName: __ZNKSt3__122__compressed_pair_elemIPNS_11__tree_nodeINS_12__value_typeIN6Player14AnimationStateEZNS3_6updateERKNS_6vectorIN2sf14RectangleShapeENS_9allocatorIS7_EEEEE13AnimationDataEEPvEELi0ELb0EE5__getB8ne180100Ev, symObjAddr: 0x93CC, symBinAddr: 0x10001BAD0, symSize: 0x14 }
  - { offset: 0x5938C, size: 0x8, addend: 0x0, symName: __ZNSt3__117__compressed_pairIPNS_11__tree_nodeINS_12__value_typeIN6Player14AnimationStateEZNS3_6updateERKNS_6vectorIN2sf14RectangleShapeENS_9allocatorIS7_EEEEE13AnimationDataEEPvEENS_22__tree_node_destructorINS8_ISG_EEEEE6secondB8ne180100Ev, symObjAddr: 0x93E0, symBinAddr: 0x10001BAE4, symSize: 0x28 }
  - { offset: 0x593B2, size: 0x8, addend: 0x0, symName: __ZNSt3__122__compressed_pair_elemINS_22__tree_node_destructorINS_9allocatorINS_11__tree_nodeINS_12__value_typeIN6Player14AnimationStateEZNS5_6updateERKNS_6vectorIN2sf14RectangleShapeENS2_IS9_EEEEE13AnimationDataEEPvEEEEEELi1ELb0EE5__getB8ne180100Ev, symObjAddr: 0x9408, symBinAddr: 0x10001BB0C, symSize: 0x14 }
  - { offset: 0x593D8, size: 0x8, addend: 0x0, symName: __ZNSt3__16__treeINS_12__value_typeIN6Player14AnimationStateEZNS2_6updateERKNS_6vectorIN2sf14RectangleShapeENS_9allocatorIS6_EEEEE13AnimationDataEENS_19__map_value_compareIS3_SD_NS_4lessIS3_EELb1EEENS7_ISD_EEE4sizeB8ne180100Ev, symObjAddr: 0x9698, symBinAddr: 0x10001BD9C, symSize: 0x28 }
  - { offset: 0x593FE, size: 0x8, addend: 0x0, symName: __ZNSt3__116__tree_node_baseIPvE12__set_parentB8ne180100EPS2_, symObjAddr: 0x9864, symBinAddr: 0x10001BF68, symSize: 0x20 }
  - { offset: 0x59434, size: 0x8, addend: 0x0, symName: __ZNSt3__117__compressed_pairImNS_19__map_value_compareIN6Player14AnimationStateENS_12__value_typeIS3_ZNS2_6updateERKNS_6vectorIN2sf14RectangleShapeENS_9allocatorIS7_EEEEE13AnimationDataEENS_4lessIS3_EELb1EEEE5firstB8ne180100Ev, symObjAddr: 0x9884, symBinAddr: 0x10001BF88, symSize: 0x24 }
  - { offset: 0x5945A, size: 0x8, addend: 0x0, symName: __ZNSt3__122__compressed_pair_elemImLi0ELb0EE5__getB8ne180100Ev, symObjAddr: 0x98A8, symBinAddr: 0x10001BFAC, symSize: 0x14 }
  - { offset: 0x59480, size: 0x8, addend: 0x0, symName: __ZNSt3__117__compressed_pairIPNS_11__tree_nodeINS_12__value_typeIN6Player14AnimationStateEZNS3_6updateERKNS_6vectorIN2sf14RectangleShapeENS_9allocatorIS7_EEEEE13AnimationDataEEPvEENS_22__tree_node_destructorINS8_ISG_EEEEE5firstB8ne180100Ev, symObjAddr: 0x98BC, symBinAddr: 0x10001BFC0, symSize: 0x24 }
  - { offset: 0x594A6, size: 0x8, addend: 0x0, symName: __ZNSt3__122__compressed_pair_elemIPNS_11__tree_nodeINS_12__value_typeIN6Player14AnimationStateEZNS3_6updateERKNS_6vectorIN2sf14RectangleShapeENS_9allocatorIS7_EEEEE13AnimationDataEEPvEELi0ELb0EE5__getB8ne180100Ev, symObjAddr: 0x98E0, symBinAddr: 0x10001BFE4, symSize: 0x14 }
  - { offset: 0x594CC, size: 0x8, addend: 0x0, symName: __ZNSt3__110unique_ptrINS_11__tree_nodeINS_12__value_typeIN6Player14AnimationStateEZNS3_6updateERKNS_6vectorIN2sf14RectangleShapeENS_9allocatorIS7_EEEEE13AnimationDataEEPvEENS_22__tree_node_destructorINS8_ISG_EEEEED2B8ne180100Ev, symObjAddr: 0x98F4, symBinAddr: 0x10001BFF8, symSize: 0x30 }
  - { offset: 0x594F6, size: 0x8, addend: 0x0, symName: __ZNSt3__110unique_ptrINS_11__tree_nodeINS_12__value_typeIN6Player14AnimationStateEZNS3_6updateERKNS_6vectorIN2sf14RectangleShapeENS_9allocatorIS7_EEEEE13AnimationDataEEPvEENS_22__tree_node_destructorINS8_ISG_EEEEE5resetB8ne180100EPSG_, symObjAddr: 0x9924, symBinAddr: 0x10001C028, symSize: 0x78 }
  - { offset: 0x5953C, size: 0x8, addend: 0x0, symName: __ZNSt3__122__tree_node_destructorINS_9allocatorINS_11__tree_nodeINS_12__value_typeIN6Player14AnimationStateEZNS4_6updateERKNS_6vectorIN2sf14RectangleShapeENS1_IS8_EEEEE13AnimationDataEEPvEEEEEclB8ne180100EPSG_, symObjAddr: 0x999C, symBinAddr: 0x10001C0A0, symSize: 0x98 }
  - { offset: 0x59572, size: 0x8, addend: 0x0, symName: __ZNSt3__116allocator_traitsINS_9allocatorINS_11__tree_nodeINS_12__value_typeIN6Player14AnimationStateEZNS4_6updateERKNS_6vectorIN2sf14RectangleShapeENS1_IS8_EEEEE13AnimationDataEEPvEEEEE7destroyB8ne180100INS_4pairIKS5_SD_EEvvEEvRSH_PT_, symObjAddr: 0x9A34, symBinAddr: 0x10001C138, symSize: 0x28 }
  - { offset: 0x595AE, size: 0x8, addend: 0x0, symName: __ZNSt3__116allocator_traitsINS_9allocatorINS_11__tree_nodeINS_12__value_typeIN6Player14AnimationStateEZNS4_6updateERKNS_6vectorIN2sf14RectangleShapeENS1_IS8_EEEEE13AnimationDataEEPvEEEEE10deallocateB8ne180100ERSH_PSG_m, symObjAddr: 0x9A5C, symBinAddr: 0x10001C160, symSize: 0x34 }
  - { offset: 0x595F3, size: 0x8, addend: 0x0, symName: __ZNSt3__19allocatorINS_11__tree_nodeINS_12__value_typeIN6Player14AnimationStateEZNS3_6updateERKNS_6vectorIN2sf14RectangleShapeENS0_IS7_EEEEE13AnimationDataEEPvEEE10deallocateB8ne180100EPSF_m, symObjAddr: 0x9AA0, symBinAddr: 0x10001C1A4, symSize: 0x44 }
  - { offset: 0x59637, size: 0x8, addend: 0x0, symName: __ZNSt3__115__tree_iteratorINS_12__value_typeIN6Player14AnimationStateEZNS2_6updateERKNS_6vectorIN2sf14RectangleShapeENS_9allocatorIS6_EEEEE13AnimationDataEEPNS_11__tree_nodeISD_PvEElEC2B8ne180100ESH_, symObjAddr: 0x9AE4, symBinAddr: 0x10001C1E8, symSize: 0x20 }
  - { offset: 0x59671, size: 0x8, addend: 0x0, symName: __ZNSt3__14pairINS_15__tree_iteratorINS_12__value_typeIN6Player14AnimationStateEZNS3_6updateERKNS_6vectorIN2sf14RectangleShapeENS_9allocatorIS7_EEEEE13AnimationDataEEPNS_11__tree_nodeISE_PvEElEEbEC2B8ne180100ISJ_RbLi0EEEOT_OT0_, symObjAddr: 0x9B04, symBinAddr: 0x10001C208, symSize: 0x38 }
  - { offset: 0x596D1, size: 0x8, addend: 0x0, symName: __ZNSt3__114__map_iteratorINS_15__tree_iteratorINS_12__value_typeIN6Player14AnimationStateEZNS3_6updateERKNS_6vectorIN2sf14RectangleShapeENS_9allocatorIS7_EEEEE13AnimationDataEEPNS_11__tree_nodeISE_PvEElEEEC2B8ne180100ESJ_, symObjAddr: 0x9B3C, symBinAddr: 0x10001C240, symSize: 0x20 }
  - { offset: 0x5970B, size: 0x8, addend: 0x0, symName: __ZNSt3__120__map_const_iteratorINS_21__tree_const_iteratorINS_12__value_typeIN6Player14AnimationStateEZNS3_6updateERKNS_6vectorIN2sf14RectangleShapeENS_9allocatorIS7_EEEEE13AnimationDataEEPNS_11__tree_nodeISE_PvEElEEEC2B8ne180100ESJ_, symObjAddr: 0x9B5C, symBinAddr: 0x10001C260, symSize: 0x20 }
  - { offset: 0x59745, size: 0x8, addend: 0x0, symName: __ZNSt3__16__treeINS_12__value_typeIN6Player14AnimationStateEZNS2_6updateERKNS_6vectorIN2sf14RectangleShapeENS_9allocatorIS6_EEEEE13AnimationDataEENS_19__map_value_compareIS3_SD_NS_4lessIS3_EELb1EEENS7_ISD_EEED2Ev, symObjAddr: 0x9B7C, symBinAddr: 0x10001C280, symSize: 0x38 }
  - { offset: 0x59771, size: 0x8, addend: 0x0, symName: __ZNSt3__16__treeINS_12__value_typeIN6Player14AnimationStateEZNS2_6updateERKNS_6vectorIN2sf14RectangleShapeENS_9allocatorIS6_EEEEE13AnimationDataEENS_19__map_value_compareIS3_SD_NS_4lessIS3_EELb1EEENS7_ISD_EEE7destroyEPNS_11__tree_nodeISD_PvEE, symObjAddr: 0x9BB4, symBinAddr: 0x10001C2B8, symSize: 0xAC }
  - { offset: 0x597C0, size: 0x8, addend: 0x0, symName: __ZNSt3__13mapIN6Player14AnimationStateEZNS1_6updateERKNS_6vectorIN2sf14RectangleShapeENS_9allocatorIS5_EEEEE13AnimationDataNS_4lessIS2_EENS6_INS_4pairIKS2_SB_EEEEED2B8ne180100Ev, symObjAddr: 0x9C60, symBinAddr: 0x10001C364, symSize: 0x2C }
  - { offset: 0x597EA, size: 0x8, addend: 0x0, symName: __ZNKSt3__16__treeINS_12__value_typeIN6Player14AnimationStateEZNS2_6updateERKNS_6vectorIN2sf14RectangleShapeENS_9allocatorIS6_EEEEE13AnimationDataEENS_19__map_value_compareIS3_SD_NS_4lessIS3_EELb1EEENS7_ISD_EEE4findIS3_EENS_21__tree_const_iteratorISD_PNS_11__tree_nodeISD_PvEElEERKT_, symObjAddr: 0x9C8C, symBinAddr: 0x10001C390, symSize: 0xF8 }
  - { offset: 0x5983B, size: 0x8, addend: 0x0, symName: __ZNKSt3__16__treeINS_12__value_typeIN6Player14AnimationStateEZNS2_6updateERKNS_6vectorIN2sf14RectangleShapeENS_9allocatorIS6_EEEEE13AnimationDataEENS_19__map_value_compareIS3_SD_NS_4lessIS3_EELb1EEENS7_ISD_EEE13__lower_boundIS3_EENS_21__tree_const_iteratorISD_PNS_11__tree_nodeISD_PvEElEERKT_SP_PNS_15__tree_end_nodeIPNS_16__tree_node_baseISN_EEEE, symObjAddr: 0x9D84, symBinAddr: 0x10001C488, symSize: 0xA4 }
  - { offset: 0x5989C, size: 0x8, addend: 0x0, symName: __ZNKSt3__16__treeINS_12__value_typeIN6Player14AnimationStateEZNS2_6updateERKNS_6vectorIN2sf14RectangleShapeENS_9allocatorIS6_EEEEE13AnimationDataEENS_19__map_value_compareIS3_SD_NS_4lessIS3_EELb1EEENS7_ISD_EEE3endB8ne180100Ev, symObjAddr: 0x9E5C, symBinAddr: 0x10001C560, symSize: 0x34 }
  - { offset: 0x598C2, size: 0x8, addend: 0x0, symName: __ZNKSt3__16__treeINS_12__value_typeIN6Player14AnimationStateEZNS2_6updateERKNS_6vectorIN2sf14RectangleShapeENS_9allocatorIS6_EEEEE13AnimationDataEENS_19__map_value_compareIS3_SD_NS_4lessIS3_EELb1EEENS7_ISD_EEE10value_compB8ne180100Ev, symObjAddr: 0x9E90, symBinAddr: 0x10001C594, symSize: 0x28 }
  - { offset: 0x598E8, size: 0x8, addend: 0x0, symName: __ZNSt3__121__tree_const_iteratorINS_12__value_typeIN6Player14AnimationStateEZNS2_6updateERKNS_6vectorIN2sf14RectangleShapeENS_9allocatorIS6_EEEEE13AnimationDataEEPNS_11__tree_nodeISD_PvEElEC1B8ne180100EPNS_15__tree_end_nodeIPNS_16__tree_node_baseISF_EEEE, symObjAddr: 0x9EB8, symBinAddr: 0x10001C5BC, symSize: 0x34 }
  - { offset: 0x59922, size: 0x8, addend: 0x0, symName: __ZNSt3__121__tree_const_iteratorINS_12__value_typeIN6Player14AnimationStateEZNS2_6updateERKNS_6vectorIN2sf14RectangleShapeENS_9allocatorIS6_EEEEE13AnimationDataEEPNS_11__tree_nodeISD_PvEElEC2B8ne180100EPNS_15__tree_end_nodeIPNS_16__tree_node_baseISF_EEEE, symObjAddr: 0x9EEC, symBinAddr: 0x10001C5F0, symSize: 0x20 }
  - { offset: 0x5995C, size: 0x8, addend: 0x0, symName: __ZNKSt3__117__compressed_pairImNS_19__map_value_compareIN6Player14AnimationStateENS_12__value_typeIS3_ZNS2_6updateERKNS_6vectorIN2sf14RectangleShapeENS_9allocatorIS7_EEEEE13AnimationDataEENS_4lessIS3_EELb1EEEE6secondB8ne180100Ev, symObjAddr: 0x9F0C, symBinAddr: 0x10001C610, symSize: 0x24 }
  - { offset: 0x59982, size: 0x8, addend: 0x0, symName: __ZNKSt3__122__compressed_pair_elemINS_19__map_value_compareIN6Player14AnimationStateENS_12__value_typeIS3_ZNS2_6updateERKNS_6vectorIN2sf14RectangleShapeENS_9allocatorIS7_EEEEE13AnimationDataEENS_4lessIS3_EELb1EEELi1ELb1EE5__getB8ne180100Ev, symObjAddr: 0x9F30, symBinAddr: 0x10001C634, symSize: 0x14 }
  - { offset: 0x599A8, size: 0x8, addend: 0x0, symName: __ZNSt3__114pointer_traitsIPKNS_4pairIKN6Player14AnimationStateEZNS2_6updateERKNS_6vectorIN2sf14RectangleShapeENS_9allocatorIS7_EEEEE13AnimationDataEEE10pointer_toB8ne180100ERSF_, symObjAddr: 0x9F44, symBinAddr: 0x10001C648, symSize: 0x14 }
  - { offset: 0x599CC, size: 0x8, addend: 0x0, symName: __ZNKSt3__121__tree_const_iteratorINS_12__value_typeIN6Player14AnimationStateEZNS2_6updateERKNS_6vectorIN2sf14RectangleShapeENS_9allocatorIS6_EEEEE13AnimationDataEEPNS_11__tree_nodeISD_PvEElEptB8ne180100Ev, symObjAddr: 0x9F58, symBinAddr: 0x10001C65C, symSize: 0x2C }
  - { offset: 0x599F2, size: 0x8, addend: 0x0, symName: __ZNSt3__114pointer_traitsIPKNS_12__value_typeIN6Player14AnimationStateEZNS2_6updateERKNS_6vectorIN2sf14RectangleShapeENS_9allocatorIS6_EEEEE13AnimationDataEEE10pointer_toB8ne180100ERSE_, symObjAddr: 0x9F84, symBinAddr: 0x10001C688, symSize: 0x14 }
  - { offset: 0x5CD68, size: 0x8, addend: 0x0, symName: __ZN2sfmLIfEERNS_7Vector2IT_EES4_S2_, symObjAddr: 0xFF0, symBinAddr: 0x10001D3E0, symSize: 0x40 }
  - { offset: 0x5CDAE, size: 0x8, addend: 0x0, symName: __ZN2sfpLIfEERNS_7Vector2IT_EES4_S3_, symObjAddr: 0x1030, symBinAddr: 0x10001D420, symSize: 0x44 }
  - { offset: 0x5CDF4, size: 0x8, addend: 0x0, symName: __ZN2sfmiIfEENS_7Vector2IT_EES3_S3_, symObjAddr: 0x1458, symBinAddr: 0x10001D4AC, symSize: 0x50 }
  - { offset: 0x6AB52, size: 0x8, addend: 0x0, symName: __Z6lengthRKN2sf7Vector2IfEE, symObjAddr: 0x0, symBinAddr: 0x10001C69C, symSize: 0x48 }
  - { offset: 0x6AB80, size: 0x8, addend: 0x0, symName: __Z9normalizeRKN2sf7Vector2IfEE, symObjAddr: 0x60, symBinAddr: 0x10001C6E4, symSize: 0xA4 }
  - { offset: 0x6ABBD, size: 0x8, addend: 0x0, symName: __ZN9BoomerangC2ENSt3__110shared_ptrIN2sf7TextureEEENS2_7Vector2IfEES6_i, symObjAddr: 0x140, symBinAddr: 0x10001C788, symSize: 0x380 }
  - { offset: 0x6AC3D, size: 0x8, addend: 0x0, symName: __ZN2sf4TimeC1Ev, symObjAddr: 0x4C0, symBinAddr: 0x10001CB08, symSize: 0x2C }
  - { offset: 0x6AC67, size: 0x8, addend: 0x0, symName: __ZN9BoomerangC1ENSt3__110shared_ptrIN2sf7TextureEEENS2_7Vector2IfEES6_i, symObjAddr: 0x744, symBinAddr: 0x10001CB34, symSize: 0x5C }
  - { offset: 0x6ACD0, size: 0x8, addend: 0x0, symName: __ZN9Boomerang6updateEN2sf7Vector2IfEERKNSt3__16vectorINS0_14RectangleShapeENS3_9allocatorIS5_EEEE, symObjAddr: 0x7A0, symBinAddr: 0x10001CB90, symSize: 0x840 }
  - { offset: 0x6AE03, size: 0x8, addend: 0x0, symName: __ZNK9Boomerang9getBoundsEv, symObjAddr: 0x1120, symBinAddr: 0x10001D464, symSize: 0x48 }
  - { offset: 0x6AE2B, size: 0x8, addend: 0x0, symName: __ZN9Boomerang4drawERN2sf12RenderWindowE, symObjAddr: 0x1530, symBinAddr: 0x10001D4FC, symSize: 0xA8 }
  - { offset: 0x6AE62, size: 0x8, addend: 0x0, symName: __ZNK9Boomerang8getStateEv, symObjAddr: 0x15D8, symBinAddr: 0x10001D5A4, symSize: 0x18 }
  - { offset: 0x6AE8A, size: 0x8, addend: 0x0, symName: __ZNK9Boomerang10getOwnerIdEv, symObjAddr: 0x15F0, symBinAddr: 0x10001D5BC, symSize: 0x18 }
  - { offset: 0x6AEB2, size: 0x8, addend: 0x0, symName: __ZN2sf4TimeC2Ev, symObjAddr: 0x1634, symBinAddr: 0x10001D5D4, symSize: 0x18 }
...
